
terminal.o:     file format elf32-i386


Disassembly of section .text:

00000000 <tprint>:
       0:	55                   	push   ebp
       1:	57                   	push   edi
       2:	56                   	push   esi
       3:	89 c6                	mov    esi,eax
       5:	53                   	push   ebx
       6:	83 ec 1c             	sub    esp,0x1c
       9:	8b 80 98 07 00 00    	mov    eax,DWORD PTR [eax+0x798]
       f:	89 54 24 08          	mov    DWORD PTR [esp+0x8],edx
      13:	89 4c 24 0c          	mov    DWORD PTR [esp+0xc],ecx
      17:	83 f8 17             	cmp    eax,0x17
      1a:	7e 64                	jle    80 <tprint+0x80>
      1c:	89 f5                	mov    ebp,esi
      1e:	8d be 38 07 00 00    	lea    edi,[esi+0x738]
      24:	8d 9e eb 06 00 00    	lea    ebx,[esi+0x6eb]
      2a:	8d b6 00 00 00 00    	lea    esi,[esi+0x0]
      30:	83 ec 04             	sub    esp,0x4
      33:	89 e8                	mov    eax,ebp
      35:	83 c5 4d             	add    ebp,0x4d
      38:	83 c7 04             	add    edi,0x4
      3b:	6a 4d                	push   0x4d
      3d:	55                   	push   ebp
      3e:	50                   	push   eax
      3f:	e8 fc ff ff ff       	call   40 <tprint+0x40>
      44:	8b 07                	mov    eax,DWORD PTR [edi]
      46:	83 c4 10             	add    esp,0x10
      49:	89 47 fc             	mov    DWORD PTR [edi-0x4],eax
      4c:	39 dd                	cmp    ebp,ebx
      4e:	75 e0                	jne    30 <tprint+0x30>
      50:	83 ec 04             	sub    esp,0x4
      53:	6a 4c                	push   0x4c
      55:	ff 74 24 10          	push   DWORD PTR [esp+0x10]
      59:	55                   	push   ebp
      5a:	e8 fc ff ff ff       	call   5b <tprint+0x5b>
      5f:	8b 44 24 1c          	mov    eax,DWORD PTR [esp+0x1c]
      63:	83 c4 10             	add    esp,0x10
      66:	c6 86 37 07 00 00 00 	mov    BYTE PTR [esi+0x737],0x0
      6d:	89 86 94 07 00 00    	mov    DWORD PTR [esi+0x794],eax
      73:	83 c4 1c             	add    esp,0x1c
      76:	5b                   	pop    ebx
      77:	5e                   	pop    esi
      78:	5f                   	pop    edi
      79:	5d                   	pop    ebp
      7a:	c3                   	ret
      7b:	2e 8d 74 26 00       	lea    esi,cs:[esi+eiz*1+0x0]
      80:	6b c0 4d             	imul   eax,eax,0x4d
      83:	83 ec 04             	sub    esp,0x4
      86:	6a 4c                	push   0x4c
      88:	ff 74 24 10          	push   DWORD PTR [esp+0x10]
      8c:	01 f0                	add    eax,esi
      8e:	50                   	push   eax
      8f:	e8 fc ff ff ff       	call   90 <tprint+0x90>
      94:	8b 86 98 07 00 00    	mov    eax,DWORD PTR [esi+0x798]
      9a:	8b 4c 24 1c          	mov    ecx,DWORD PTR [esp+0x1c]
      9e:	83 c4 10             	add    esp,0x10
      a1:	6b d0 4d             	imul   edx,eax,0x4d
      a4:	c6 44 16 4c 00       	mov    BYTE PTR [esi+edx*1+0x4c],0x0
      a9:	89 8c 86 38 07 00 00 	mov    DWORD PTR [esi+eax*4+0x738],ecx
      b0:	83 c0 01             	add    eax,0x1
      b3:	89 86 98 07 00 00    	mov    DWORD PTR [esi+0x798],eax
      b9:	83 c4 1c             	add    esp,0x1c
      bc:	5b                   	pop    ebx
      bd:	5e                   	pop    esi
      be:	5f                   	pop    edi
      bf:	5d                   	pop    ebp
      c0:	c3                   	ret
      c1:	8d b4 26 00 00 00 00 	lea    esi,[esi+eiz*1+0x0]
      c8:	2e 8d b4 26 00 00 00 	lea    esi,cs:[esi+eiz*1+0x0]
      cf:	00 

000000d0 <cmd_sysinfo>:
      d0:	53                   	push   ebx
      d1:	b9 fa b4 89 00       	mov    ecx,0x89b4fa
      d6:	89 c3                	mov    ebx,eax
      d8:	ba 00 00 00 00       	mov    edx,0x0
      dd:	83 ec 08             	sub    esp,0x8
      e0:	e8 1b ff ff ff       	call   0 <tprint>
      e5:	89 d8                	mov    eax,ebx
      e7:	b9 fa b4 89 00       	mov    ecx,0x89b4fa
      ec:	ba 28 00 00 00       	mov    edx,0x28
      f1:	e8 0a ff ff ff       	call   0 <tprint>
      f6:	89 d8                	mov    eax,ebx
      f8:	b9 ec c7 74 00       	mov    ecx,0x74c7ec
      fd:	ba 50 00 00 00       	mov    edx,0x50
     102:	e8 f9 fe ff ff       	call   0 <tprint>
     107:	89 d8                	mov    eax,ebx
     109:	b9 ec c7 74 00       	mov    ecx,0x74c7ec
     10e:	ba 78 00 00 00       	mov    edx,0x78
     113:	e8 e8 fe ff ff       	call   0 <tprint>
     118:	89 d8                	mov    eax,ebx
     11a:	b9 fe be b4 00       	mov    ecx,0xb4befe
     11f:	ba a4 00 00 00       	mov    edx,0xa4
     124:	e8 d7 fe ff ff       	call   0 <tprint>
     129:	89 d8                	mov    eax,ebx
     12b:	b9 fe be b4 00       	mov    ecx,0xb4befe
     130:	ba cc 00 00 00       	mov    edx,0xcc
     135:	e8 c6 fe ff ff       	call   0 <tprint>
     13a:	89 d8                	mov    eax,ebx
     13c:	b9 f4 d6 cd 00       	mov    ecx,0xcdd6f4
     141:	ba 00 00 00 00       	mov    edx,0x0
     146:	e8 b5 fe ff ff       	call   0 <tprint>
     14b:	89 d8                	mov    eax,ebx
     14d:	b9 f4 d6 cd 00       	mov    ecx,0xcdd6f4
     152:	ba 01 00 00 00       	mov    edx,0x1
     157:	e8 a4 fe ff ff       	call   0 <tprint>
     15c:	89 d8                	mov    eax,ebx
     15e:	b9 f4 d6 cd 00       	mov    ecx,0xcdd6f4
     163:	ba 17 00 00 00       	mov    edx,0x17
     168:	e8 93 fe ff ff       	call   0 <tprint>
     16d:	89 d8                	mov    eax,ebx
     16f:	b9 f4 d6 cd 00       	mov    ecx,0xcdd6f4
     174:	ba 32 00 00 00       	mov    edx,0x32
     179:	e8 82 fe ff ff       	call   0 <tprint>
     17e:	89 d8                	mov    eax,ebx
     180:	b9 f4 d6 cd 00       	mov    ecx,0xcdd6f4
     185:	ba 46 00 00 00       	mov    edx,0x46
     18a:	e8 71 fe ff ff       	call   0 <tprint>
     18f:	89 d8                	mov    eax,ebx
     191:	b9 f4 d6 cd 00       	mov    ecx,0xcdd6f4
     196:	ba 63 00 00 00       	mov    edx,0x63
     19b:	e8 60 fe ff ff       	call   0 <tprint>
     1a0:	89 d8                	mov    eax,ebx
     1a2:	b9 f4 d6 cd 00       	mov    ecx,0xcdd6f4
     1a7:	ba 7e 00 00 00       	mov    edx,0x7e
     1ac:	e8 4f fe ff ff       	call   0 <tprint>
     1b1:	89 d8                	mov    eax,ebx
     1b3:	b9 f4 d6 cd 00       	mov    ecx,0xcdd6f4
     1b8:	ba 9b 00 00 00       	mov    edx,0x9b
     1bd:	e8 3e fe ff ff       	call   0 <tprint>
     1c2:	83 c4 08             	add    esp,0x8
     1c5:	89 d8                	mov    eax,ebx
     1c7:	b9 f7 a6 cb 00       	mov    ecx,0xcba6f7
     1cc:	ba b6 00 00 00       	mov    edx,0xb6
     1d1:	5b                   	pop    ebx
     1d2:	e9 29 fe ff ff       	jmp    0 <tprint>
     1d7:	90                   	nop
     1d8:	2e 8d b4 26 00 00 00 	lea    esi,cs:[esi+eiz*1+0x0]
     1df:	00 

000001e0 <cmd_mem>:
     1e0:	53                   	push   ebx
     1e1:	b9 f4 d6 cd 00       	mov    ecx,0xcdd6f4
     1e6:	89 c3                	mov    ebx,eax
     1e8:	ba ec 00 00 00       	mov    edx,0xec
     1ed:	83 ec 08             	sub    esp,0x8
     1f0:	e8 0b fe ff ff       	call   0 <tprint>
     1f5:	89 d8                	mov    eax,ebx
     1f7:	b9 f4 d6 cd 00       	mov    ecx,0xcdd6f4
     1fc:	ba d2 00 00 00       	mov    edx,0xd2
     201:	e8 fa fd ff ff       	call   0 <tprint>
     206:	89 d8                	mov    eax,ebx
     208:	b9 f4 d6 cd 00       	mov    ecx,0xcdd6f4
     20d:	ba 14 01 00 00       	mov    edx,0x114
     212:	e8 e9 fd ff ff       	call   0 <tprint>
     217:	83 c4 08             	add    esp,0x8
     21a:	89 d8                	mov    eax,ebx
     21c:	b9 f4 d6 cd 00       	mov    ecx,0xcdd6f4
     221:	ba e8 00 00 00       	mov    edx,0xe8
     226:	5b                   	pop    ebx
     227:	e9 d4 fd ff ff       	jmp    0 <tprint>
     22c:	8d 74 26 00          	lea    esi,[esi+eiz*1+0x0]

00000230 <cmd_cowsay>:
     230:	55                   	push   ebp
     231:	57                   	push   edi
     232:	89 c7                	mov    edi,eax
     234:	56                   	push   esi
     235:	be fd 00 00 00       	mov    esi,0xfd
     23a:	53                   	push   ebx
     23b:	83 ec 6c             	sub    esp,0x6c
     23e:	85 d2                	test   edx,edx
     240:	74 06                	je     248 <cmd_cowsay+0x18>
     242:	80 3a 00             	cmp    BYTE PTR [edx],0x0
     245:	0f 45 f2             	cmovne esi,edx
     248:	83 ec 0c             	sub    esp,0xc
     24b:	bb 32 00 00 00       	mov    ebx,0x32
     250:	56                   	push   esi
     251:	e8 fc ff ff ff       	call   252 <cmd_cowsay+0x22>
     256:	c6 44 24 28 20       	mov    BYTE PTR [esp+0x28],0x20
     25b:	39 d8                	cmp    eax,ebx
     25d:	89 c5                	mov    ebp,eax
     25f:	0f 4e d8             	cmovle ebx,eax
     262:	83 c4 10             	add    esp,0x10
     265:	89 d8                	mov    eax,ebx
     267:	83 c0 01             	add    eax,0x1
     26a:	89 44 24 0c          	mov    DWORD PTR [esp+0xc],eax
     26e:	78 2e                	js     29e <cmd_cowsay+0x6e>
     270:	8d 54 1c 1b          	lea    edx,[esp+ebx*1+0x1b]
     274:	8d 44 24 19          	lea    eax,[esp+0x19]
     278:	f6 c3 01             	test   bl,0x1
     27b:	74 13                	je     290 <cmd_cowsay+0x60>
     27d:	c6 00 5f             	mov    BYTE PTR [eax],0x5f
     280:	8d 44 24 1a          	lea    eax,[esp+0x1a]
     284:	39 d0                	cmp    eax,edx
     286:	74 16                	je     29e <cmd_cowsay+0x6e>
     288:	2e 8d b4 26 00 00 00 	lea    esi,cs:[esi+eiz*1+0x0]
     28f:	00 
     290:	c6 00 5f             	mov    BYTE PTR [eax],0x5f
     293:	83 c0 02             	add    eax,0x2
     296:	c6 40 ff 5f          	mov    BYTE PTR [eax-0x1],0x5f
     29a:	39 d0                	cmp    eax,edx
     29c:	75 f2                	jne    290 <cmd_cowsay+0x60>
     29e:	89 f8                	mov    eax,edi
     2a0:	b9 f4 d6 cd 00       	mov    ecx,0xcdd6f4
     2a5:	8d 54 24 18          	lea    edx,[esp+0x18]
     2a9:	c6 44 1c 1b 00       	mov    BYTE PTR [esp+ebx*1+0x1b],0x0
     2ae:	e8 4d fd ff ff       	call   0 <tprint>
     2b3:	b8 3c 20 00 00       	mov    eax,0x203c
     2b8:	66 89 44 24 18       	mov    WORD PTR [esp+0x18],ax
     2bd:	85 ed                	test   ebp,ebp
     2bf:	0f 8e db 00 00 00    	jle    3a0 <cmd_cowsay+0x170>
     2c5:	31 c0                	xor    eax,eax
     2c7:	90                   	nop
     2c8:	2e 8d b4 26 00 00 00 	lea    esi,cs:[esi+eiz*1+0x0]
     2cf:	00 
     2d0:	0f b6 14 06          	movzx  edx,BYTE PTR [esi+eax*1]
     2d4:	88 54 04 1a          	mov    BYTE PTR [esp+eax*1+0x1a],dl
     2d8:	83 c0 01             	add    eax,0x1
     2db:	39 c3                	cmp    ebx,eax
     2dd:	7f f1                	jg     2d0 <cmd_cowsay+0xa0>
     2df:	b8 20 3e 00 00       	mov    eax,0x3e20
     2e4:	b9 f4 d6 cd 00       	mov    ecx,0xcdd6f4
     2e9:	8d 54 24 18          	lea    edx,[esp+0x18]
     2ed:	c6 44 1c 1c 00       	mov    BYTE PTR [esp+ebx*1+0x1c],0x0
     2f2:	66 89 44 1c 1a       	mov    WORD PTR [esp+ebx*1+0x1a],ax
     2f7:	89 f8                	mov    eax,edi
     2f9:	e8 02 fd ff ff       	call   0 <tprint>
     2fe:	c6 44 24 18 20       	mov    BYTE PTR [esp+0x18],0x20
     303:	8d 54 1c 1b          	lea    edx,[esp+ebx*1+0x1b]
     307:	8d 44 24 19          	lea    eax,[esp+0x19]
     30b:	f6 c3 01             	test   bl,0x1
     30e:	74 10                	je     320 <cmd_cowsay+0xf0>
     310:	c6 00 2d             	mov    BYTE PTR [eax],0x2d
     313:	8d 44 24 1a          	lea    eax,[esp+0x1a]
     317:	39 c2                	cmp    edx,eax
     319:	74 13                	je     32e <cmd_cowsay+0xfe>
     31b:	2e 8d 74 26 00       	lea    esi,cs:[esi+eiz*1+0x0]
     320:	c6 00 2d             	mov    BYTE PTR [eax],0x2d
     323:	83 c0 02             	add    eax,0x2
     326:	c6 40 ff 2d          	mov    BYTE PTR [eax-0x1],0x2d
     32a:	39 c2                	cmp    edx,eax
     32c:	75 f2                	jne    320 <cmd_cowsay+0xf0>
     32e:	8d 54 24 18          	lea    edx,[esp+0x18]
     332:	89 f8                	mov    eax,edi
     334:	b9 f4 d6 cd 00       	mov    ecx,0xcdd6f4
     339:	c6 44 1c 1b 00       	mov    BYTE PTR [esp+ebx*1+0x1b],0x0
     33e:	e8 bd fc ff ff       	call   0 <tprint>
     343:	89 f8                	mov    eax,edi
     345:	b9 f4 d6 cd 00       	mov    ecx,0xcdd6f4
     34a:	ba 0d 01 00 00       	mov    edx,0x10d
     34f:	e8 ac fc ff ff       	call   0 <tprint>
     354:	89 f8                	mov    eax,edi
     356:	b9 f4 d6 cd 00       	mov    ecx,0xcdd6f4
     35b:	ba 1e 01 00 00       	mov    edx,0x11e
     360:	e8 9b fc ff ff       	call   0 <tprint>
     365:	89 f8                	mov    eax,edi
     367:	b9 f4 d6 cd 00       	mov    ecx,0xcdd6f4
     36c:	ba 37 01 00 00       	mov    edx,0x137
     371:	e8 8a fc ff ff       	call   0 <tprint>
     376:	89 f8                	mov    eax,edi
     378:	b9 f4 d6 cd 00       	mov    ecx,0xcdd6f4
     37d:	ba 54 01 00 00       	mov    edx,0x154
     382:	e8 79 fc ff ff       	call   0 <tprint>
     387:	89 f8                	mov    eax,edi
     389:	b9 f4 d6 cd 00       	mov    ecx,0xcdd6f4
     38e:	ba 6e 01 00 00       	mov    edx,0x16e
     393:	e8 68 fc ff ff       	call   0 <tprint>
     398:	83 c4 6c             	add    esp,0x6c
     39b:	5b                   	pop    ebx
     39c:	5e                   	pop    esi
     39d:	5f                   	pop    edi
     39e:	5d                   	pop    ebp
     39f:	c3                   	ret
     3a0:	ba 20 3e 00 00       	mov    edx,0x3e20
     3a5:	b9 f4 d6 cd 00       	mov    ecx,0xcdd6f4
     3aa:	89 f8                	mov    eax,edi
     3ac:	c6 44 1c 1c 00       	mov    BYTE PTR [esp+ebx*1+0x1c],0x0
     3b1:	66 89 54 1c 1a       	mov    WORD PTR [esp+ebx*1+0x1a],dx
     3b6:	8d 54 24 18          	lea    edx,[esp+0x18]
     3ba:	e8 41 fc ff ff       	call   0 <tprint>
     3bf:	8b 4c 24 0c          	mov    ecx,DWORD PTR [esp+0xc]
     3c3:	c6 44 24 18 20       	mov    BYTE PTR [esp+0x18],0x20
     3c8:	85 c9                	test   ecx,ecx
     3ca:	0f 88 5e ff ff ff    	js     32e <cmd_cowsay+0xfe>
     3d0:	e9 2e ff ff ff       	jmp    303 <cmd_cowsay+0xd3>
     3d5:	8d 76 00             	lea    esi,[esi+0x0]
     3d8:	2e 8d b4 26 00 00 00 	lea    esi,cs:[esi+eiz*1+0x0]
     3df:	00 

000003e0 <cmd_ls>:
     3e0:	56                   	push   esi
     3e1:	b9 fa b4 89 00       	mov    ecx,0x89b4fa
     3e6:	89 d6                	mov    esi,edx
     3e8:	ba 88 01 00 00       	mov    edx,0x188
     3ed:	53                   	push   ebx
     3ee:	89 c3                	mov    ebx,eax
     3f0:	83 ec 04             	sub    esp,0x4
     3f3:	e8 08 fc ff ff       	call   0 <tprint>
     3f8:	b9 fa b4 89 00       	mov    ecx,0x89b4fa
     3fd:	ba 9c 01 00 00       	mov    edx,0x19c
     402:	89 d8                	mov    eax,ebx
     404:	e8 f7 fb ff ff       	call   0 <tprint>
     409:	83 ec 08             	sub    esp,0x8
     40c:	68 b1 01 00 00       	push   0x1b1
     411:	56                   	push   esi
     412:	e8 fc ff ff ff       	call   413 <cmd_ls+0x33>
     417:	83 c4 10             	add    esp,0x10
     41a:	85 c0                	test   eax,eax
     41c:	74 05                	je     423 <cmd_ls+0x43>
     41e:	80 3e 00             	cmp    BYTE PTR [esi],0x0
     421:	75 44                	jne    467 <cmd_ls+0x87>
     423:	b9 f4 d6 cd 00       	mov    ecx,0xcdd6f4
     428:	ba 38 01 00 00       	mov    edx,0x138
     42d:	89 d8                	mov    eax,ebx
     42f:	e8 cc fb ff ff       	call   0 <tprint>
     434:	b9 a1 e3 a6 00       	mov    ecx,0xa6e3a1
     439:	ba 64 01 00 00       	mov    edx,0x164
     43e:	89 d8                	mov    eax,ebx
     440:	e8 bb fb ff ff       	call   0 <tprint>
     445:	b9 f4 d6 cd 00       	mov    ecx,0xcdd6f4
     44a:	ba 90 01 00 00       	mov    edx,0x190
     44f:	89 d8                	mov    eax,ebx
     451:	e8 aa fb ff ff       	call   0 <tprint>
     456:	b9 f4 d6 cd 00       	mov    ecx,0xcdd6f4
     45b:	ba bc 01 00 00       	mov    edx,0x1bc
     460:	89 d8                	mov    eax,ebx
     462:	e8 99 fb ff ff       	call   0 <tprint>
     467:	83 c4 04             	add    esp,0x4
     46a:	89 d8                	mov    eax,ebx
     46c:	b9 86 70 6c 00       	mov    ecx,0x6c7086
     471:	ba e8 01 00 00       	mov    edx,0x1e8
     476:	5b                   	pop    ebx
     477:	5e                   	pop    esi
     478:	e9 83 fb ff ff       	jmp    0 <tprint>
     47d:	8d 76 00             	lea    esi,[esi+0x0]

00000480 <cmd_time>:
     480:	55                   	push   ebp
     481:	89 c5                	mov    ebp,eax
     483:	57                   	push   edi
     484:	56                   	push   esi
     485:	53                   	push   ebx
     486:	83 ec 4c             	sub    esp,0x4c
     489:	c7 44 24 18 20 20 00 	mov    DWORD PTR [esp+0x18],0x2020
     490:	00 
     491:	8d 5c 24 18          	lea    ebx,[esp+0x18]
     495:	c7 44 24 1c 00 00 00 	mov    DWORD PTR [esp+0x1c],0x0
     49c:	00 
     49d:	c7 44 24 20 00 00 00 	mov    DWORD PTR [esp+0x20],0x0
     4a4:	00 
     4a5:	c7 44 24 24 00 00 00 	mov    DWORD PTR [esp+0x24],0x0
     4ac:	00 
     4ad:	c7 44 24 28 00 00 00 	mov    DWORD PTR [esp+0x28],0x0
     4b4:	00 
     4b5:	c7 44 24 2c 00 00 00 	mov    DWORD PTR [esp+0x2c],0x0
     4bc:	00 
     4bd:	c7 44 24 30 00 00 00 	mov    DWORD PTR [esp+0x30],0x0
     4c4:	00 
     4c5:	c7 44 24 34 00 00 00 	mov    DWORD PTR [esp+0x34],0x0
     4cc:	00 
     4cd:	c7 44 24 38 00 00 00 	mov    DWORD PTR [esp+0x38],0x0
     4d4:	00 
     4d5:	c7 44 24 3c 00 00 00 	mov    DWORD PTR [esp+0x3c],0x0
     4dc:	00 
     4dd:	e8 fc ff ff ff       	call   4de <cmd_time+0x5e>
     4e2:	89 c6                	mov    esi,eax
     4e4:	88 44 24 0f          	mov    BYTE PTR [esp+0xf],al
     4e8:	e8 fc ff ff ff       	call   4e9 <cmd_time+0x69>
     4ed:	88 44 24 0e          	mov    BYTE PTR [esp+0xe],al
     4f1:	e8 fc ff ff ff       	call   4f2 <cmd_time+0x72>
     4f6:	89 c7                	mov    edi,eax
     4f8:	89 f0                	mov    eax,esi
     4fa:	3c 09                	cmp    al,0x9
     4fc:	0f 86 9e 00 00 00    	jbe    5a0 <cmd_time+0x120>
     502:	83 ec 04             	sub    esp,0x4
     505:	6a 0a                	push   0xa
     507:	8d 74 24 1c          	lea    esi,[esp+0x1c]
     50b:	56                   	push   esi
     50c:	0f b6 44 24 1b       	movzx  eax,BYTE PTR [esp+0x1b]
     511:	50                   	push   eax
     512:	e8 fc ff ff ff       	call   513 <cmd_time+0x93>
     517:	59                   	pop    ecx
     518:	58                   	pop    eax
     519:	56                   	push   esi
     51a:	53                   	push   ebx
     51b:	e8 fc ff ff ff       	call   51c <cmd_time+0x9c>
     520:	58                   	pop    eax
     521:	5a                   	pop    edx
     522:	68 b5 01 00 00       	push   0x1b5
     527:	53                   	push   ebx
     528:	e8 fc ff ff ff       	call   529 <cmd_time+0xa9>
     52d:	83 c4 10             	add    esp,0x10
     530:	80 7c 24 0e 09       	cmp    BYTE PTR [esp+0xe],0x9
     535:	0f 86 9d 00 00 00    	jbe    5d8 <cmd_time+0x158>
     53b:	83 ec 04             	sub    esp,0x4
     53e:	6a 0a                	push   0xa
     540:	56                   	push   esi
     541:	0f b6 44 24 1a       	movzx  eax,BYTE PTR [esp+0x1a]
     546:	50                   	push   eax
     547:	e8 fc ff ff ff       	call   548 <cmd_time+0xc8>
     54c:	59                   	pop    ecx
     54d:	58                   	pop    eax
     54e:	56                   	push   esi
     54f:	53                   	push   ebx
     550:	e8 fc ff ff ff       	call   551 <cmd_time+0xd1>
     555:	58                   	pop    eax
     556:	5a                   	pop    edx
     557:	68 b5 01 00 00       	push   0x1b5
     55c:	53                   	push   ebx
     55d:	e8 fc ff ff ff       	call   55e <cmd_time+0xde>
     562:	89 f8                	mov    eax,edi
     564:	83 c4 10             	add    esp,0x10
     567:	3c 09                	cmp    al,0x9
     569:	76 55                	jbe    5c0 <cmd_time+0x140>
     56b:	89 f8                	mov    eax,edi
     56d:	83 ec 04             	sub    esp,0x4
     570:	0f b6 c0             	movzx  eax,al
     573:	6a 0a                	push   0xa
     575:	56                   	push   esi
     576:	50                   	push   eax
     577:	e8 fc ff ff ff       	call   578 <cmd_time+0xf8>
     57c:	58                   	pop    eax
     57d:	5a                   	pop    edx
     57e:	56                   	push   esi
     57f:	53                   	push   ebx
     580:	e8 fc ff ff ff       	call   581 <cmd_time+0x101>
     585:	89 da                	mov    edx,ebx
     587:	89 e8                	mov    eax,ebp
     589:	b9 af e2 f9 00       	mov    ecx,0xf9e2af
     58e:	e8 6d fa ff ff       	call   0 <tprint>
     593:	83 c4 5c             	add    esp,0x5c
     596:	5b                   	pop    ebx
     597:	5e                   	pop    esi
     598:	5f                   	pop    edi
     599:	5d                   	pop    ebp
     59a:	c3                   	ret
     59b:	2e 8d 74 26 00       	lea    esi,cs:[esi+eiz*1+0x0]
     5a0:	83 ec 08             	sub    esp,0x8
     5a3:	68 b3 01 00 00       	push   0x1b3
     5a8:	53                   	push   ebx
     5a9:	e8 fc ff ff ff       	call   5aa <cmd_time+0x12a>
     5ae:	83 c4 10             	add    esp,0x10
     5b1:	e9 4c ff ff ff       	jmp    502 <cmd_time+0x82>
     5b6:	66 90                	xchg   ax,ax
     5b8:	2e 8d b4 26 00 00 00 	lea    esi,cs:[esi+eiz*1+0x0]
     5bf:	00 
     5c0:	83 ec 08             	sub    esp,0x8
     5c3:	68 b3 01 00 00       	push   0x1b3
     5c8:	53                   	push   ebx
     5c9:	e8 fc ff ff ff       	call   5ca <cmd_time+0x14a>
     5ce:	83 c4 10             	add    esp,0x10
     5d1:	eb 98                	jmp    56b <cmd_time+0xeb>
     5d3:	2e 8d 74 26 00       	lea    esi,cs:[esi+eiz*1+0x0]
     5d8:	83 ec 08             	sub    esp,0x8
     5db:	68 b3 01 00 00       	push   0x1b3
     5e0:	53                   	push   ebx
     5e1:	e8 fc ff ff ff       	call   5e2 <cmd_time+0x162>
     5e6:	83 c4 10             	add    esp,0x10
     5e9:	e9 4d ff ff ff       	jmp    53b <cmd_time+0xbb>
     5ee:	66 90                	xchg   ax,ax

000005f0 <execute>:
     5f0:	55                   	push   ebp
     5f1:	57                   	push   edi
     5f2:	56                   	push   esi
     5f3:	89 d6                	mov    esi,edx
     5f5:	53                   	push   ebx
     5f6:	89 c3                	mov    ebx,eax
     5f8:	81 ec e4 00 00 00    	sub    esp,0xe4
     5fe:	c6 84 24 88 00 00 00 	mov    BYTE PTR [esp+0x88],0x0
     605:	00 
     606:	68 00 00 00 00       	push   0x0
     60b:	8d bc 24 8c 00 00 00 	lea    edi,[esp+0x8c]
     612:	57                   	push   edi
     613:	e8 fc ff ff ff       	call   614 <execute+0x24>
     618:	5d                   	pop    ebp
     619:	58                   	pop    eax
     61a:	68 b7 01 00 00       	push   0x1b7
     61f:	57                   	push   edi
     620:	e8 fc ff ff ff       	call   621 <execute+0x31>
     625:	58                   	pop    eax
     626:	5a                   	pop    edx
     627:	56                   	push   esi
     628:	57                   	push   edi
     629:	e8 fc ff ff ff       	call   62a <execute+0x3a>
     62e:	b9 9c 84 7f 00       	mov    ecx,0x7f849c
     633:	89 fa                	mov    edx,edi
     635:	89 d8                	mov    eax,ebx
     637:	e8 c4 f9 ff ff       	call   0 <tprint>
     63c:	83 c4 10             	add    esp,0x10
     63f:	80 3e 00             	cmp    BYTE PTR [esi],0x0
     642:	75 0c                	jne    650 <execute+0x60>
     644:	81 c4 dc 00 00 00    	add    esp,0xdc
     64a:	5b                   	pop    ebx
     64b:	5e                   	pop    esi
     64c:	5f                   	pop    edi
     64d:	5d                   	pop    ebp
     64e:	c3                   	ret
     64f:	90                   	nop
     650:	83 ec 08             	sub    esp,0x8
     653:	68 c2 01 00 00       	push   0x1c2
     658:	56                   	push   esi
     659:	e8 fc ff ff ff       	call   65a <execute+0x6a>
     65e:	83 c4 10             	add    esp,0x10
     661:	85 c0                	test   eax,eax
     663:	0f 85 a7 01 00 00    	jne    810 <execute+0x220>
     669:	89 d8                	mov    eax,ebx
     66b:	b9 fa b4 89 00       	mov    ecx,0x89b4fa
     670:	ba c7 01 00 00       	mov    edx,0x1c7
     675:	e8 86 f9 ff ff       	call   0 <tprint>
     67a:	89 d8                	mov    eax,ebx
     67c:	b9 f4 d6 cd 00       	mov    ecx,0xcdd6f4
     681:	ba db 01 00 00       	mov    edx,0x1db
     686:	e8 75 f9 ff ff       	call   0 <tprint>
     68b:	89 d8                	mov    eax,ebx
     68d:	b9 f4 d6 cd 00       	mov    ecx,0xcdd6f4
     692:	ba f9 01 00 00       	mov    edx,0x1f9
     697:	e8 64 f9 ff ff       	call   0 <tprint>
     69c:	89 d8                	mov    eax,ebx
     69e:	b9 f4 d6 cd 00       	mov    ecx,0xcdd6f4
     6a3:	ba 12 02 00 00       	mov    edx,0x212
     6a8:	e8 53 f9 ff ff       	call   0 <tprint>
     6ad:	89 d8                	mov    eax,ebx
     6af:	b9 f4 d6 cd 00       	mov    ecx,0xcdd6f4
     6b4:	ba 2e 02 00 00       	mov    edx,0x22e
     6b9:	e8 42 f9 ff ff       	call   0 <tprint>
     6be:	89 d8                	mov    eax,ebx
     6c0:	b9 f4 d6 cd 00       	mov    ecx,0xcdd6f4
     6c5:	ba 46 02 00 00       	mov    edx,0x246
     6ca:	e8 31 f9 ff ff       	call   0 <tprint>
     6cf:	89 d8                	mov    eax,ebx
     6d1:	b9 f4 d6 cd 00       	mov    ecx,0xcdd6f4
     6d6:	ba 5f 02 00 00       	mov    edx,0x25f
     6db:	e8 20 f9 ff ff       	call   0 <tprint>
     6e0:	89 d8                	mov    eax,ebx
     6e2:	b9 f4 d6 cd 00       	mov    ecx,0xcdd6f4
     6e7:	ba 7b 02 00 00       	mov    edx,0x27b
     6ec:	e8 0f f9 ff ff       	call   0 <tprint>
     6f1:	89 d8                	mov    eax,ebx
     6f3:	b9 f4 d6 cd 00       	mov    ecx,0xcdd6f4
     6f8:	ba 93 02 00 00       	mov    edx,0x293
     6fd:	e8 fe f8 ff ff       	call   0 <tprint>
     702:	89 d8                	mov    eax,ebx
     704:	b9 f4 d6 cd 00       	mov    ecx,0xcdd6f4
     709:	ba ac 02 00 00       	mov    edx,0x2ac
     70e:	e8 ed f8 ff ff       	call   0 <tprint>
     713:	89 d8                	mov    eax,ebx
     715:	b9 f4 d6 cd 00       	mov    ecx,0xcdd6f4
     71a:	ba c5 02 00 00       	mov    edx,0x2c5
     71f:	e8 dc f8 ff ff       	call   0 <tprint>
     724:	89 d8                	mov    eax,ebx
     726:	b9 f4 d6 cd 00       	mov    ecx,0xcdd6f4
     72b:	ba 14 02 00 00       	mov    edx,0x214
     730:	e8 cb f8 ff ff       	call   0 <tprint>
     735:	89 d8                	mov    eax,ebx
     737:	b9 f4 d6 cd 00       	mov    ecx,0xcdd6f4
     73c:	ba 44 02 00 00       	mov    edx,0x244
     741:	e8 ba f8 ff ff       	call   0 <tprint>
     746:	89 d8                	mov    eax,ebx
     748:	b9 f4 d6 cd 00       	mov    ecx,0xcdd6f4
     74d:	ba 70 02 00 00       	mov    edx,0x270
     752:	e8 a9 f8 ff ff       	call   0 <tprint>
     757:	89 d8                	mov    eax,ebx
     759:	b9 f4 d6 cd 00       	mov    ecx,0xcdd6f4
     75e:	ba de 02 00 00       	mov    edx,0x2de
     763:	e8 98 f8 ff ff       	call   0 <tprint>
     768:	89 d8                	mov    eax,ebx
     76a:	b9 f4 d6 cd 00       	mov    ecx,0xcdd6f4
     76f:	ba f9 02 00 00       	mov    edx,0x2f9
     774:	e8 87 f8 ff ff       	call   0 <tprint>
     779:	89 d8                	mov    eax,ebx
     77b:	b9 f4 d6 cd 00       	mov    ecx,0xcdd6f4
     780:	ba 10 03 00 00       	mov    edx,0x310
     785:	e8 76 f8 ff ff       	call   0 <tprint>
     78a:	89 d8                	mov    eax,ebx
     78c:	b9 f4 d6 cd 00       	mov    ecx,0xcdd6f4
     791:	ba 28 03 00 00       	mov    edx,0x328
     796:	e8 65 f8 ff ff       	call   0 <tprint>
     79b:	89 d8                	mov    eax,ebx
     79d:	b9 f4 d6 cd 00       	mov    ecx,0xcdd6f4
     7a2:	ba 3e 03 00 00       	mov    edx,0x33e
     7a7:	e8 54 f8 ff ff       	call   0 <tprint>
     7ac:	89 d8                	mov    eax,ebx
     7ae:	b9 f4 d6 cd 00       	mov    ecx,0xcdd6f4
     7b3:	ba 4e 03 00 00       	mov    edx,0x34e
     7b8:	e8 43 f8 ff ff       	call   0 <tprint>
     7bd:	89 d8                	mov    eax,ebx
     7bf:	b9 f4 d6 cd 00       	mov    ecx,0xcdd6f4
     7c4:	ba 6a 03 00 00       	mov    edx,0x36a
     7c9:	e8 32 f8 ff ff       	call   0 <tprint>
     7ce:	89 d8                	mov    eax,ebx
     7d0:	b9 f4 d6 cd 00       	mov    ecx,0xcdd6f4
     7d5:	ba 90 02 00 00       	mov    edx,0x290
     7da:	e8 21 f8 ff ff       	call   0 <tprint>
     7df:	89 d8                	mov    eax,ebx
     7e1:	b9 f4 d6 cd 00       	mov    ecx,0xcdd6f4
     7e6:	ba 83 03 00 00       	mov    edx,0x383
     7eb:	e8 10 f8 ff ff       	call   0 <tprint>
     7f0:	89 d8                	mov    eax,ebx
     7f2:	b9 f4 d6 cd 00       	mov    ecx,0xcdd6f4
     7f7:	ba 9d 03 00 00       	mov    edx,0x39d
     7fc:	e8 ff f7 ff ff       	call   0 <tprint>
     801:	81 c4 dc 00 00 00    	add    esp,0xdc
     807:	5b                   	pop    ebx
     808:	5e                   	pop    esi
     809:	5f                   	pop    edi
     80a:	5d                   	pop    ebp
     80b:	c3                   	ret
     80c:	8d 74 26 00          	lea    esi,[esi+eiz*1+0x0]
     810:	83 ec 08             	sub    esp,0x8
     813:	68 b6 03 00 00       	push   0x3b6
     818:	56                   	push   esi
     819:	e8 fc ff ff ff       	call   81a <execute+0x22a>
     81e:	83 c4 10             	add    esp,0x10
     821:	85 c0                	test   eax,eax
     823:	75 1b                	jne    840 <execute+0x250>
     825:	c7 83 98 07 00 00 00 	mov    DWORD PTR [ebx+0x798],0x0
     82c:	00 00 00 
     82f:	81 c4 dc 00 00 00    	add    esp,0xdc
     835:	5b                   	pop    ebx
     836:	5e                   	pop    esi
     837:	5f                   	pop    edi
     838:	5d                   	pop    ebp
     839:	c3                   	ret
     83a:	8d b6 00 00 00 00    	lea    esi,[esi+0x0]
     840:	83 ec 08             	sub    esp,0x8
     843:	68 bc 03 00 00       	push   0x3bc
     848:	56                   	push   esi
     849:	e8 fc ff ff ff       	call   84a <execute+0x25a>
     84e:	83 c4 10             	add    esp,0x10
     851:	85 c0                	test   eax,eax
     853:	74 43                	je     898 <execute+0x2a8>
     855:	83 ec 08             	sub    esp,0x8
     858:	68 c4 03 00 00       	push   0x3c4
     85d:	56                   	push   esi
     85e:	e8 fc ff ff ff       	call   85f <execute+0x26f>
     863:	83 c4 10             	add    esp,0x10
     866:	85 c0                	test   eax,eax
     868:	74 2e                	je     898 <execute+0x2a8>
     86a:	83 ec 08             	sub    esp,0x8
     86d:	68 ca 03 00 00       	push   0x3ca
     872:	56                   	push   esi
     873:	e8 fc ff ff ff       	call   874 <execute+0x284>
     878:	83 c4 10             	add    esp,0x10
     87b:	85 c0                	test   eax,eax
     87d:	75 29                	jne    8a8 <execute+0x2b8>
     87f:	b9 f4 d6 cd 00       	mov    ecx,0xcdd6f4
     884:	ba d0 03 00 00       	mov    edx,0x3d0
     889:	89 d8                	mov    eax,ebx
     88b:	e8 70 f7 ff ff       	call   0 <tprint>
     890:	e9 af fd ff ff       	jmp    644 <execute+0x54>
     895:	8d 76 00             	lea    esi,[esi+0x0]
     898:	89 d8                	mov    eax,ebx
     89a:	e8 31 f8 ff ff       	call   d0 <cmd_sysinfo>
     89f:	e9 a0 fd ff ff       	jmp    644 <execute+0x54>
     8a4:	8d 74 26 00          	lea    esi,[esi+eiz*1+0x0]
     8a8:	83 ec 08             	sub    esp,0x8
     8ab:	68 ed 03 00 00       	push   0x3ed
     8b0:	56                   	push   esi
     8b1:	e8 fc ff ff ff       	call   8b2 <execute+0x2c2>
     8b6:	83 c4 10             	add    esp,0x10
     8b9:	85 c0                	test   eax,eax
     8bb:	75 16                	jne    8d3 <execute+0x2e3>
     8bd:	b9 f4 d6 cd 00       	mov    ecx,0xcdd6f4
     8c2:	ba b0 02 00 00       	mov    edx,0x2b0
     8c7:	89 d8                	mov    eax,ebx
     8c9:	e8 32 f7 ff ff       	call   0 <tprint>
     8ce:	e9 71 fd ff ff       	jmp    644 <execute+0x54>
     8d3:	83 ec 08             	sub    esp,0x8
     8d6:	68 f6 03 00 00       	push   0x3f6
     8db:	56                   	push   esi
     8dc:	e8 fc ff ff ff       	call   8dd <execute+0x2ed>
     8e1:	83 c4 10             	add    esp,0x10
     8e4:	85 c0                	test   eax,eax
     8e6:	75 0c                	jne    8f4 <execute+0x304>
     8e8:	89 d8                	mov    eax,ebx
     8ea:	e8 91 fb ff ff       	call   480 <cmd_time>
     8ef:	e9 50 fd ff ff       	jmp    644 <execute+0x54>
     8f4:	83 ec 08             	sub    esp,0x8
     8f7:	68 fb 03 00 00       	push   0x3fb
     8fc:	56                   	push   esi
     8fd:	e8 fc ff ff ff       	call   8fe <execute+0x30e>
     902:	83 c4 10             	add    esp,0x10
     905:	85 c0                	test   eax,eax
     907:	0f 85 f4 00 00 00    	jne    a01 <execute+0x411>
     90d:	c7 44 24 33 20 20 75 	mov    DWORD PTR [esp+0x33],0x70752020
     914:	70 
     915:	c7 44 24 37 20 00 00 	mov    DWORD PTR [esp+0x37],0x20
     91c:	00 
     91d:	c7 44 24 3b 00 00 00 	mov    DWORD PTR [esp+0x3b],0x0
     924:	00 
     925:	c7 44 24 3f 00 00 00 	mov    DWORD PTR [esp+0x3f],0x0
     92c:	00 
     92d:	c7 44 24 43 00 00 00 	mov    DWORD PTR [esp+0x43],0x0
     934:	00 
     935:	c7 44 24 47 00 00 00 	mov    DWORD PTR [esp+0x47],0x0
     93c:	00 
     93d:	c7 44 24 4b 00 00 00 	mov    DWORD PTR [esp+0x4b],0x0
     944:	00 
     945:	c7 44 24 4f 00 00 00 	mov    DWORD PTR [esp+0x4f],0x0
     94c:	00 
     94d:	c7 44 24 53 00 00 00 	mov    DWORD PTR [esp+0x53],0x0
     954:	00 
     955:	c7 44 24 57 00 00 00 	mov    DWORD PTR [esp+0x57],0x0
     95c:	00 
     95d:	c7 44 24 5b 00 00 00 	mov    DWORD PTR [esp+0x5b],0x0
     964:	00 
     965:	c7 44 24 5f 00 00 00 	mov    DWORD PTR [esp+0x5f],0x0
     96c:	00 
     96d:	e8 fc ff ff ff       	call   96e <execute+0x37e>
     972:	83 ec 04             	sub    esp,0x4
     975:	ba 1f 85 eb 51       	mov    edx,0x51eb851f
     97a:	6a 0a                	push   0xa
     97c:	f7 e2                	mul    edx
     97e:	8d 44 24 2b          	lea    eax,[esp+0x2b]
     982:	89 d6                	mov    esi,edx
     984:	50                   	push   eax
     985:	c1 ee 05             	shr    esi,0x5
     988:	b8 89 88 88 88       	mov    eax,0x88888889
     98d:	f7 e6                	mul    esi
     98f:	c1 ea 05             	shr    edx,0x5
     992:	52                   	push   edx
     993:	89 54 24 18          	mov    DWORD PTR [esp+0x18],edx
     997:	e8 fc ff ff ff       	call   998 <execute+0x3a8>
     99c:	58                   	pop    eax
     99d:	5a                   	pop    edx
     99e:	8d 44 24 2b          	lea    eax,[esp+0x2b]
     9a2:	50                   	push   eax
     9a3:	8d 7c 24 3f          	lea    edi,[esp+0x3f]
     9a7:	57                   	push   edi
     9a8:	e8 fc ff ff ff       	call   9a9 <execute+0x3b9>
     9ad:	59                   	pop    ecx
     9ae:	5d                   	pop    ebp
     9af:	68 02 04 00 00       	push   0x402
     9b4:	57                   	push   edi
     9b5:	e8 fc ff ff ff       	call   9b6 <execute+0x3c6>
     9ba:	83 c4 0c             	add    esp,0xc
     9bd:	6a 0a                	push   0xa
     9bf:	8d 44 24 2b          	lea    eax,[esp+0x2b]
     9c3:	50                   	push   eax
     9c4:	6b 54 24 14 3c       	imul   edx,DWORD PTR [esp+0x14],0x3c
     9c9:	29 d6                	sub    esi,edx
     9cb:	56                   	push   esi
     9cc:	e8 fc ff ff ff       	call   9cd <execute+0x3dd>
     9d1:	58                   	pop    eax
     9d2:	5a                   	pop    edx
     9d3:	8d 44 24 2b          	lea    eax,[esp+0x2b]
     9d7:	50                   	push   eax
     9d8:	57                   	push   edi
     9d9:	e8 fc ff ff ff       	call   9da <execute+0x3ea>
     9de:	59                   	pop    ecx
     9df:	5e                   	pop    esi
     9e0:	68 05 04 00 00       	push   0x405
     9e5:	57                   	push   edi
     9e6:	e8 fc ff ff ff       	call   9e7 <execute+0x3f7>
     9eb:	b9 a1 e3 a6 00       	mov    ecx,0xa6e3a1
     9f0:	89 fa                	mov    edx,edi
     9f2:	89 d8                	mov    eax,ebx
     9f4:	e8 07 f6 ff ff       	call   0 <tprint>
     9f9:	83 c4 10             	add    esp,0x10
     9fc:	e9 43 fc ff ff       	jmp    644 <execute+0x54>
     a01:	83 ec 08             	sub    esp,0x8
     a04:	68 07 04 00 00       	push   0x407
     a09:	56                   	push   esi
     a0a:	e8 fc ff ff ff       	call   a0b <execute+0x41b>
     a0f:	83 c4 10             	add    esp,0x10
     a12:	85 c0                	test   eax,eax
     a14:	74 71                	je     a87 <execute+0x497>
     a16:	55                   	push   ebp
     a17:	55                   	push   ebp
     a18:	68 0b 04 00 00       	push   0x40b
     a1d:	56                   	push   esi
     a1e:	e8 fc ff ff ff       	call   a1f <execute+0x42f>
     a23:	83 c4 10             	add    esp,0x10
     a26:	85 c0                	test   eax,eax
     a28:	74 5d                	je     a87 <execute+0x497>
     a2a:	57                   	push   edi
     a2b:	57                   	push   edi
     a2c:	68 10 04 00 00       	push   0x410
     a31:	56                   	push   esi
     a32:	e8 fc ff ff ff       	call   a33 <execute+0x443>
     a37:	83 c4 10             	add    esp,0x10
     a3a:	85 c0                	test   eax,eax
     a3c:	75 55                	jne    a93 <execute+0x4a3>
     a3e:	89 d8                	mov    eax,ebx
     a40:	b9 fa b4 89 00       	mov    ecx,0x89b4fa
     a45:	ba 13 04 00 00       	mov    edx,0x413
     a4a:	e8 b1 f5 ff ff       	call   0 <tprint>
     a4f:	89 d8                	mov    eax,ebx
     a51:	b9 f4 d6 cd 00       	mov    ecx,0xcdd6f4
     a56:	ba 28 04 00 00       	mov    edx,0x428
     a5b:	e8 a0 f5 ff ff       	call   0 <tprint>
     a60:	89 d8                	mov    eax,ebx
     a62:	b9 f4 d6 cd 00       	mov    ecx,0xcdd6f4
     a67:	ba 3f 04 00 00       	mov    edx,0x43f
     a6c:	e8 8f f5 ff ff       	call   0 <tprint>
     a71:	b9 a1 e3 a6 00       	mov    ecx,0xa6e3a1
     a76:	ba 53 04 00 00       	mov    edx,0x453
     a7b:	89 d8                	mov    eax,ebx
     a7d:	e8 7e f5 ff ff       	call   0 <tprint>
     a82:	e9 bd fb ff ff       	jmp    644 <execute+0x54>
     a87:	89 d8                	mov    eax,ebx
     a89:	e8 52 f7 ff ff       	call   1e0 <cmd_mem>
     a8e:	e9 b1 fb ff ff       	jmp    644 <execute+0x54>
     a93:	51                   	push   ecx
     a94:	51                   	push   ecx
     a95:	68 6c 04 00 00       	push   0x46c
     a9a:	56                   	push   esi
     a9b:	e8 fc ff ff ff       	call   a9c <execute+0x4ac>
     aa0:	83 c4 10             	add    esp,0x10
     aa3:	85 c0                	test   eax,eax
     aa5:	75 3a                	jne    ae1 <execute+0x4f1>
     aa7:	8d 7c 24 37          	lea    edi,[esp+0x37]
     aab:	b9 08 00 00 00       	mov    ecx,0x8
     ab0:	c7 44 24 33 20 20 00 	mov    DWORD PTR [esp+0x33],0x2020
     ab7:	00 
     ab8:	f3 ab                	rep stos DWORD PTR es:[edi],eax
     aba:	52                   	push   edx
     abb:	52                   	push   edx
     abc:	68 00 00 00 00       	push   0x0
     ac1:	8d 74 24 3f          	lea    esi,[esp+0x3f]
     ac5:	56                   	push   esi
     ac6:	e8 fc ff ff ff       	call   ac7 <execute+0x4d7>
     acb:	b9 87 b3 fa 00       	mov    ecx,0xfab387
     ad0:	89 f2                	mov    edx,esi
     ad2:	89 d8                	mov    eax,ebx
     ad4:	e8 27 f5 ff ff       	call   0 <tprint>
     ad9:	83 c4 10             	add    esp,0x10
     adc:	e9 63 fb ff ff       	jmp    644 <execute+0x54>
     ae1:	50                   	push   eax
     ae2:	50                   	push   eax
     ae3:	68 73 04 00 00       	push   0x473
     ae8:	56                   	push   esi
     ae9:	e8 fc ff ff ff       	call   aea <execute+0x4fa>
     aee:	83 c4 10             	add    esp,0x10
     af1:	85 c0                	test   eax,eax
     af3:	75 16                	jne    b0b <execute+0x51b>
     af5:	b9 87 b3 fa 00       	mov    ecx,0xfab387
     afa:	ba 7c 04 00 00       	mov    edx,0x47c
     aff:	89 d8                	mov    eax,ebx
     b01:	e8 fa f4 ff ff       	call   0 <tprint>
     b06:	e9 39 fb ff ff       	jmp    644 <execute+0x54>
     b0b:	50                   	push   eax
     b0c:	50                   	push   eax
     b0d:	68 85 04 00 00       	push   0x485
     b12:	56                   	push   esi
     b13:	e8 fc ff ff ff       	call   b14 <execute+0x524>
     b18:	89 44 24 18          	mov    DWORD PTR [esp+0x18],eax
     b1c:	83 c4 10             	add    esp,0x10
     b1f:	85 c0                	test   eax,eax
     b21:	75 5d                	jne    b80 <execute+0x590>
     b23:	e8 fc ff ff ff       	call   b24 <execute+0x534>
     b28:	89 c5                	mov    ebp,eax
     b2a:	83 78 18 00          	cmp    DWORD PTR [eax+0x18],0x0
     b2e:	0f 84 0c 01 00 00    	je     c40 <execute+0x650>
     b34:	c6 44 24 33 00       	mov    BYTE PTR [esp+0x33],0x0
     b39:	31 f6                	xor    esi,esi
     b3b:	50                   	push   eax
     b3c:	50                   	push   eax
     b3d:	68 8e 04 00 00       	push   0x48e
     b42:	8d 7c 24 3f          	lea    edi,[esp+0x3f]
     b46:	57                   	push   edi
     b47:	e8 fc ff ff ff       	call   b48 <execute+0x558>
     b4c:	83 c4 10             	add    esp,0x10
     b4f:	50                   	push   eax
     b50:	6a 0a                	push   0xa
     b52:	8d 44 24 2b          	lea    eax,[esp+0x2b]
     b56:	50                   	push   eax
     b57:	0f b6 44 35 00       	movzx  eax,BYTE PTR [ebp+esi*1+0x0]
     b5c:	50                   	push   eax
     b5d:	e8 fc ff ff ff       	call   b5e <execute+0x56e>
     b62:	83 c4 10             	add    esp,0x10
     b65:	85 f6                	test   esi,esi
     b67:	75 4a                	jne    bb3 <execute+0x5c3>
     b69:	51                   	push   ecx
     b6a:	be 01 00 00 00       	mov    esi,0x1
     b6f:	51                   	push   ecx
     b70:	8d 44 24 2b          	lea    eax,[esp+0x2b]
     b74:	50                   	push   eax
     b75:	57                   	push   edi
     b76:	e8 fc ff ff ff       	call   b77 <execute+0x587>
     b7b:	83 c4 10             	add    esp,0x10
     b7e:	eb cf                	jmp    b4f <execute+0x55f>
     b80:	55                   	push   ebp
     b81:	55                   	push   ebp
     b82:	68 b4 04 00 00       	push   0x4b4
     b87:	56                   	push   esi
     b88:	e8 fc ff ff ff       	call   b89 <execute+0x599>
     b8d:	83 c4 10             	add    esp,0x10
     b90:	85 c0                	test   eax,eax
     b92:	0f 85 be 00 00 00    	jne    c56 <execute+0x666>
     b98:	e8 fc ff ff ff       	call   b99 <execute+0x5a9>
     b9d:	b9 a1 e3 a6 00       	mov    ecx,0xa6e3a1
     ba2:	ba b9 04 00 00       	mov    edx,0x4b9
     ba7:	89 d8                	mov    eax,ebx
     ba9:	e8 52 f4 ff ff       	call   0 <tprint>
     bae:	e9 91 fa ff ff       	jmp    644 <execute+0x54>
     bb3:	52                   	push   edx
     bb4:	83 c6 01             	add    esi,0x1
     bb7:	52                   	push   edx
     bb8:	68 96 04 00 00       	push   0x496
     bbd:	57                   	push   edi
     bbe:	e8 fc ff ff ff       	call   bbf <execute+0x5cf>
     bc3:	59                   	pop    ecx
     bc4:	58                   	pop    eax
     bc5:	8d 44 24 2b          	lea    eax,[esp+0x2b]
     bc9:	50                   	push   eax
     bca:	57                   	push   edi
     bcb:	e8 fc ff ff ff       	call   bcc <execute+0x5dc>
     bd0:	83 c4 10             	add    esp,0x10
     bd3:	83 fe 04             	cmp    esi,0x4
     bd6:	0f 85 73 ff ff ff    	jne    b4f <execute+0x55f>
     bdc:	89 d8                	mov    eax,ebx
     bde:	b9 a1 e3 a6 00       	mov    ecx,0xa6e3a1
     be3:	89 fa                	mov    edx,edi
     be5:	31 f6                	xor    esi,esi
     be7:	e8 14 f4 ff ff       	call   0 <tprint>
     bec:	c6 44 24 33 00       	mov    BYTE PTR [esp+0x33],0x0
     bf1:	50                   	push   eax
     bf2:	50                   	push   eax
     bf3:	68 98 04 00 00       	push   0x498
     bf8:	57                   	push   edi
     bf9:	e8 fc ff ff ff       	call   bfa <execute+0x60a>
     bfe:	83 c4 10             	add    esp,0x10
     c01:	50                   	push   eax
     c02:	6a 10                	push   0x10
     c04:	8d 44 24 2b          	lea    eax,[esp+0x2b]
     c08:	50                   	push   eax
     c09:	0f b6 44 35 10       	movzx  eax,BYTE PTR [ebp+esi*1+0x10]
     c0e:	50                   	push   eax
     c0f:	e8 fc ff ff ff       	call   c10 <execute+0x620>
     c14:	83 c4 10             	add    esp,0x10
     c17:	85 f6                	test   esi,esi
     c19:	0f 85 ea 00 00 00    	jne    d09 <execute+0x719>
     c1f:	80 7d 10 0f          	cmp    BYTE PTR [ebp+0x10],0xf
     c23:	0f 86 f7 00 00 00    	jbe    d20 <execute+0x730>
     c29:	56                   	push   esi
     c2a:	56                   	push   esi
     c2b:	be 01 00 00 00       	mov    esi,0x1
     c30:	8d 44 24 2b          	lea    eax,[esp+0x2b]
     c34:	50                   	push   eax
     c35:	57                   	push   edi
     c36:	e8 fc ff ff ff       	call   c37 <execute+0x647>
     c3b:	83 c4 10             	add    esp,0x10
     c3e:	eb c1                	jmp    c01 <execute+0x611>
     c40:	b9 af e2 f9 00       	mov    ecx,0xf9e2af
     c45:	ba e4 02 00 00       	mov    edx,0x2e4
     c4a:	89 d8                	mov    eax,ebx
     c4c:	e8 af f3 ff ff       	call   0 <tprint>
     c51:	e9 ee f9 ff ff       	jmp    644 <execute+0x54>
     c56:	57                   	push   edi
     c57:	57                   	push   edi
     c58:	68 ce 04 00 00       	push   0x4ce
     c5d:	56                   	push   esi
     c5e:	e8 fc ff ff ff       	call   c5f <execute+0x66f>
     c63:	83 c4 10             	add    esp,0x10
     c66:	85 c0                	test   eax,eax
     c68:	0f 85 4e 01 00 00    	jne    dbc <execute+0x7cc>
     c6e:	e8 fc ff ff ff       	call   c6f <execute+0x67f>
     c73:	89 44 24 08          	mov    DWORD PTR [esp+0x8],eax
     c77:	85 c0                	test   eax,eax
     c79:	0f 84 27 01 00 00    	je     da6 <execute+0x7b6>
     c7f:	b9 fa b4 89 00       	mov    ecx,0x89b4fa
     c84:	ba e4 04 00 00       	mov    edx,0x4e4
     c89:	89 d8                	mov    eax,ebx
     c8b:	31 ed                	xor    ebp,ebp
     c8d:	e8 6e f3 ff ff       	call   0 <tprint>
     c92:	89 5c 24 0c          	mov    DWORD PTR [esp+0xc],ebx
     c96:	eb 03                	jmp    c9b <execute+0x6ab>
     c98:	83 c5 01             	add    ebp,0x1
     c9b:	39 6c 24 08          	cmp    DWORD PTR [esp+0x8],ebp
     c9f:	0f 8e 9f f9 ff ff    	jle    644 <execute+0x54>
     ca5:	53                   	push   ebx
     ca6:	8d 44 24 27          	lea    eax,[esp+0x27]
     caa:	50                   	push   eax
     cab:	8d 44 24 20          	lea    eax,[esp+0x20]
     caf:	50                   	push   eax
     cb0:	55                   	push   ebp
     cb1:	e8 fc ff ff ff       	call   cb2 <execute+0x6c2>
     cb6:	83 c4 10             	add    esp,0x10
     cb9:	85 c0                	test   eax,eax
     cbb:	74 db                	je     c98 <execute+0x6a8>
     cbd:	8d 7c 24 37          	lea    edi,[esp+0x37]
     cc1:	b9 0f 00 00 00       	mov    ecx,0xf
     cc6:	8d 74 24 33          	lea    esi,[esp+0x33]
     cca:	31 c0                	xor    eax,eax
     ccc:	c7 44 24 33 20 20 00 	mov    DWORD PTR [esp+0x33],0x2020
     cd3:	00 
     cd4:	8d 5c 24 1f          	lea    ebx,[esp+0x1f]
     cd8:	f3 ab                	rep stos DWORD PTR es:[edi],eax
     cda:	31 ff                	xor    edi,edi
     cdc:	51                   	push   ecx
     cdd:	6a 0a                	push   0xa
     cdf:	53                   	push   ebx
     ce0:	0f b6 44 3c 24       	movzx  eax,BYTE PTR [esp+edi*1+0x24]
     ce5:	50                   	push   eax
     ce6:	e8 fc ff ff ff       	call   ce7 <execute+0x6f7>
     ceb:	83 c4 10             	add    esp,0x10
     cee:	85 ff                	test   edi,edi
     cf0:	0f 85 bf 01 00 00    	jne    eb5 <execute+0x8c5>
     cf6:	50                   	push   eax
     cf7:	bf 01 00 00 00       	mov    edi,0x1
     cfc:	50                   	push   eax
     cfd:	53                   	push   ebx
     cfe:	56                   	push   esi
     cff:	e8 fc ff ff ff       	call   d00 <execute+0x710>
     d04:	83 c4 10             	add    esp,0x10
     d07:	eb d3                	jmp    cdc <execute+0x6ec>
     d09:	50                   	push   eax
     d0a:	50                   	push   eax
     d0b:	68 b5 01 00 00       	push   0x1b5
     d10:	57                   	push   edi
     d11:	e8 fc ff ff ff       	call   d12 <execute+0x722>
     d16:	83 c4 10             	add    esp,0x10
     d19:	80 7c 35 10 0f       	cmp    BYTE PTR [ebp+esi*1+0x10],0xf
     d1e:	77 10                	ja     d30 <execute+0x740>
     d20:	50                   	push   eax
     d21:	50                   	push   eax
     d22:	68 b3 01 00 00       	push   0x1b3
     d27:	57                   	push   edi
     d28:	e8 fc ff ff ff       	call   d29 <execute+0x739>
     d2d:	83 c4 10             	add    esp,0x10
     d30:	50                   	push   eax
     d31:	83 c6 01             	add    esi,0x1
     d34:	50                   	push   eax
     d35:	8d 44 24 2b          	lea    eax,[esp+0x2b]
     d39:	50                   	push   eax
     d3a:	57                   	push   edi
     d3b:	e8 fc ff ff ff       	call   d3c <execute+0x74c>
     d40:	83 c4 10             	add    esp,0x10
     d43:	83 fe 06             	cmp    esi,0x6
     d46:	0f 85 b5 fe ff ff    	jne    c01 <execute+0x611>
     d4c:	b9 c8 ad a6 00       	mov    ecx,0xa6adc8
     d51:	89 fa                	mov    edx,edi
     d53:	89 d8                	mov    eax,ebx
     d55:	e8 a6 f2 ff ff       	call   0 <tprint>
     d5a:	c6 44 24 33 00       	mov    BYTE PTR [esp+0x33],0x0
     d5f:	56                   	push   esi
     d60:	56                   	push   esi
     d61:	31 f6                	xor    esi,esi
     d63:	68 9f 04 00 00       	push   0x49f
     d68:	57                   	push   edi
     d69:	e8 fc ff ff ff       	call   d6a <execute+0x77a>
     d6e:	83 c4 10             	add    esp,0x10
     d71:	51                   	push   ecx
     d72:	6a 0a                	push   0xa
     d74:	8d 44 24 2b          	lea    eax,[esp+0x2b]
     d78:	50                   	push   eax
     d79:	0f b6 44 35 04       	movzx  eax,BYTE PTR [ebp+esi*1+0x4]
     d7e:	50                   	push   eax
     d7f:	e8 fc ff ff ff       	call   d80 <execute+0x790>
     d84:	83 c4 10             	add    esp,0x10
     d87:	85 f6                	test   esi,esi
     d89:	0f 85 a5 00 00 00    	jne    e34 <execute+0x844>
     d8f:	50                   	push   eax
     d90:	be 01 00 00 00       	mov    esi,0x1
     d95:	50                   	push   eax
     d96:	8d 44 24 2b          	lea    eax,[esp+0x2b]
     d9a:	50                   	push   eax
     d9b:	57                   	push   edi
     d9c:	e8 fc ff ff ff       	call   d9d <execute+0x7ad>
     da1:	83 c4 10             	add    esp,0x10
     da4:	eb cb                	jmp    d71 <execute+0x781>
     da6:	b9 9c 84 7f 00       	mov    ecx,0x7f849c
     dab:	ba d2 04 00 00       	mov    edx,0x4d2
     db0:	89 d8                	mov    eax,ebx
     db2:	e8 49 f2 ff ff       	call   0 <tprint>
     db7:	e9 88 f8 ff ff       	jmp    644 <execute+0x54>
     dbc:	50                   	push   eax
     dbd:	6a 05                	push   0x5
     dbf:	68 fd 04 00 00       	push   0x4fd
     dc4:	56                   	push   esi
     dc5:	e8 fc ff ff ff       	call   dc6 <execute+0x7d6>
     dca:	83 c4 10             	add    esp,0x10
     dcd:	85 c0                	test   eax,eax
     dcf:	0f 85 d7 01 00 00    	jne    fac <execute+0x9bc>
     dd5:	83 c6 05             	add    esi,0x5
     dd8:	eb 03                	jmp    ddd <execute+0x7ed>
     dda:	83 c6 01             	add    esi,0x1
     ddd:	0f b6 06             	movzx  eax,BYTE PTR [esi]
     de0:	3c 20                	cmp    al,0x20
     de2:	74 f6                	je     dda <execute+0x7ea>
     de4:	31 ed                	xor    ebp,ebp
     de6:	84 c0                	test   al,al
     de8:	0f 84 e8 01 00 00    	je     fd6 <execute+0x9e6>
     dee:	31 d2                	xor    edx,edx
     df0:	eb 0a                	jmp    dfc <execute+0x80c>
     df2:	6b d2 0a             	imul   edx,edx,0xa
     df5:	83 c6 01             	add    esi,0x1
     df8:	8d 54 02 d0          	lea    edx,[edx+eax*1-0x30]
     dfc:	0f be 06             	movsx  eax,BYTE PTR [esi]
     dff:	8d 48 d0             	lea    ecx,[eax-0x30]
     e02:	80 f9 09             	cmp    cl,0x9
     e05:	76 eb                	jbe    df2 <execute+0x802>
     e07:	81 fa ff 00 00 00    	cmp    edx,0xff
     e0d:	0f 8f 17 03 00 00    	jg     112a <execute+0xb3a>
     e13:	88 54 2c 1f          	mov    BYTE PTR [esp+ebp*1+0x1f],dl
     e17:	8d 7c 24 1f          	lea    edi,[esp+0x1f]
     e1b:	83 fd 03             	cmp    ebp,0x3
     e1e:	0f 84 38 02 00 00    	je     105c <execute+0xa6c>
     e24:	3c 2e                	cmp    al,0x2e
     e26:	0f 85 fe 02 00 00    	jne    112a <execute+0xb3a>
     e2c:	83 c6 01             	add    esi,0x1
     e2f:	83 c5 01             	add    ebp,0x1
     e32:	eb ba                	jmp    dee <execute+0x7fe>
     e34:	50                   	push   eax
     e35:	83 c6 01             	add    esi,0x1
     e38:	50                   	push   eax
     e39:	68 96 04 00 00       	push   0x496
     e3e:	57                   	push   edi
     e3f:	e8 fc ff ff ff       	call   e40 <execute+0x850>
     e44:	58                   	pop    eax
     e45:	5a                   	pop    edx
     e46:	8d 44 24 2b          	lea    eax,[esp+0x2b]
     e4a:	50                   	push   eax
     e4b:	57                   	push   edi
     e4c:	e8 fc ff ff ff       	call   e4d <execute+0x85d>
     e51:	83 c4 10             	add    esp,0x10
     e54:	83 fe 04             	cmp    esi,0x4
     e57:	0f 85 14 ff ff ff    	jne    d71 <execute+0x781>
     e5d:	b9 f4 d6 cd 00       	mov    ecx,0xcdd6f4
     e62:	89 fa                	mov    edx,edi
     e64:	89 d8                	mov    eax,ebx
     e66:	e8 95 f1 ff ff       	call   0 <tprint>
     e6b:	c6 44 24 33 00       	mov    BYTE PTR [esp+0x33],0x0
     e70:	56                   	push   esi
     e71:	56                   	push   esi
     e72:	68 aa 04 00 00       	push   0x4aa
     e77:	57                   	push   edi
     e78:	e8 fc ff ff ff       	call   e79 <execute+0x889>
     e7d:	8b 74 24 18          	mov    esi,DWORD PTR [esp+0x18]
     e81:	83 c4 10             	add    esp,0x10
     e84:	51                   	push   ecx
     e85:	6a 0a                	push   0xa
     e87:	8d 44 24 2b          	lea    eax,[esp+0x2b]
     e8b:	50                   	push   eax
     e8c:	0f b6 44 35 08       	movzx  eax,BYTE PTR [ebp+esi*1+0x8]
     e91:	50                   	push   eax
     e92:	e8 fc ff ff ff       	call   e93 <execute+0x8a3>
     e97:	83 c4 10             	add    esp,0x10
     e9a:	85 f6                	test   esi,esi
     e9c:	75 7e                	jne    f1c <execute+0x92c>
     e9e:	50                   	push   eax
     e9f:	be 01 00 00 00       	mov    esi,0x1
     ea4:	50                   	push   eax
     ea5:	8d 44 24 2b          	lea    eax,[esp+0x2b]
     ea9:	50                   	push   eax
     eaa:	57                   	push   edi
     eab:	e8 fc ff ff ff       	call   eac <execute+0x8bc>
     eb0:	83 c4 10             	add    esp,0x10
     eb3:	eb cf                	jmp    e84 <execute+0x894>
     eb5:	51                   	push   ecx
     eb6:	83 c7 01             	add    edi,0x1
     eb9:	51                   	push   ecx
     eba:	68 96 04 00 00       	push   0x496
     ebf:	56                   	push   esi
     ec0:	e8 fc ff ff ff       	call   ec1 <execute+0x8d1>
     ec5:	58                   	pop    eax
     ec6:	5a                   	pop    edx
     ec7:	53                   	push   ebx
     ec8:	56                   	push   esi
     ec9:	e8 fc ff ff ff       	call   eca <execute+0x8da>
     ece:	83 c4 10             	add    esp,0x10
     ed1:	83 ff 04             	cmp    edi,0x4
     ed4:	0f 85 02 fe ff ff    	jne    cdc <execute+0x6ec>
     eda:	52                   	push   edx
     edb:	31 ff                	xor    edi,edi
     edd:	52                   	push   edx
     ede:	68 f9 04 00 00       	push   0x4f9
     ee3:	56                   	push   esi
     ee4:	e8 fc ff ff ff       	call   ee5 <execute+0x8f5>
     ee9:	83 c4 10             	add    esp,0x10
     eec:	50                   	push   eax
     eed:	6a 10                	push   0x10
     eef:	53                   	push   ebx
     ef0:	0f b6 44 3c 2f       	movzx  eax,BYTE PTR [esp+edi*1+0x2f]
     ef5:	50                   	push   eax
     ef6:	e8 fc ff ff ff       	call   ef7 <execute+0x907>
     efb:	83 c4 10             	add    esp,0x10
     efe:	85 ff                	test   edi,edi
     f00:	75 56                	jne    f58 <execute+0x968>
     f02:	80 7c 24 23 0f       	cmp    BYTE PTR [esp+0x23],0xf
     f07:	76 66                	jbe    f6f <execute+0x97f>
     f09:	52                   	push   edx
     f0a:	bf 01 00 00 00       	mov    edi,0x1
     f0f:	52                   	push   edx
     f10:	53                   	push   ebx
     f11:	56                   	push   esi
     f12:	e8 fc ff ff ff       	call   f13 <execute+0x923>
     f17:	83 c4 10             	add    esp,0x10
     f1a:	eb d0                	jmp    eec <execute+0x8fc>
     f1c:	50                   	push   eax
     f1d:	83 c6 01             	add    esi,0x1
     f20:	50                   	push   eax
     f21:	68 96 04 00 00       	push   0x496
     f26:	57                   	push   edi
     f27:	e8 fc ff ff ff       	call   f28 <execute+0x938>
     f2c:	58                   	pop    eax
     f2d:	5a                   	pop    edx
     f2e:	8d 44 24 2b          	lea    eax,[esp+0x2b]
     f32:	50                   	push   eax
     f33:	57                   	push   edi
     f34:	e8 fc ff ff ff       	call   f35 <execute+0x945>
     f39:	83 c4 10             	add    esp,0x10
     f3c:	83 fe 04             	cmp    esi,0x4
     f3f:	0f 85 3f ff ff ff    	jne    e84 <execute+0x894>
     f45:	b9 f4 d6 cd 00       	mov    ecx,0xcdd6f4
     f4a:	89 fa                	mov    edx,edi
     f4c:	89 d8                	mov    eax,ebx
     f4e:	e8 ad f0 ff ff       	call   0 <tprint>
     f53:	e9 ec f6 ff ff       	jmp    644 <execute+0x54>
     f58:	50                   	push   eax
     f59:	50                   	push   eax
     f5a:	68 b5 01 00 00       	push   0x1b5
     f5f:	56                   	push   esi
     f60:	e8 fc ff ff ff       	call   f61 <execute+0x971>
     f65:	83 c4 10             	add    esp,0x10
     f68:	80 7c 3c 23 0f       	cmp    BYTE PTR [esp+edi*1+0x23],0xf
     f6d:	77 10                	ja     f7f <execute+0x98f>
     f6f:	50                   	push   eax
     f70:	50                   	push   eax
     f71:	68 b3 01 00 00       	push   0x1b3
     f76:	56                   	push   esi
     f77:	e8 fc ff ff ff       	call   f78 <execute+0x988>
     f7c:	83 c4 10             	add    esp,0x10
     f7f:	50                   	push   eax
     f80:	83 c7 01             	add    edi,0x1
     f83:	50                   	push   eax
     f84:	53                   	push   ebx
     f85:	56                   	push   esi
     f86:	e8 fc ff ff ff       	call   f87 <execute+0x997>
     f8b:	83 c4 10             	add    esp,0x10
     f8e:	83 ff 06             	cmp    edi,0x6
     f91:	0f 85 55 ff ff ff    	jne    eec <execute+0x8fc>
     f97:	8b 44 24 0c          	mov    eax,DWORD PTR [esp+0xc]
     f9b:	b9 f4 d6 cd 00       	mov    ecx,0xcdd6f4
     fa0:	89 f2                	mov    edx,esi
     fa2:	e8 59 f0 ff ff       	call   0 <tprint>
     fa7:	e9 ec fc ff ff       	jmp    c98 <execute+0x6a8>
     fac:	50                   	push   eax
     fad:	50                   	push   eax
     fae:	68 67 05 00 00       	push   0x567
     fb3:	56                   	push   esi
     fb4:	e8 fc ff ff ff       	call   fb5 <execute+0x9c5>
     fb9:	83 c4 10             	add    esp,0x10
     fbc:	85 c0                	test   eax,eax
     fbe:	75 2c                	jne    fec <execute+0x9fc>
     fc0:	b9 f4 d6 cd 00       	mov    ecx,0xcdd6f4
     fc5:	ba 6b 05 00 00       	mov    edx,0x56b
     fca:	89 d8                	mov    eax,ebx
     fcc:	e8 2f f0 ff ff       	call   0 <tprint>
     fd1:	e9 6e f6 ff ff       	jmp    644 <execute+0x54>
     fd6:	b9 a8 8b f3 00       	mov    ecx,0xf38ba8
     fdb:	ba 03 05 00 00       	mov    edx,0x503
     fe0:	89 d8                	mov    eax,ebx
     fe2:	e8 19 f0 ff ff       	call   0 <tprint>
     fe7:	e9 58 f6 ff ff       	jmp    644 <execute+0x54>
     fec:	50                   	push   eax
     fed:	50                   	push   eax
     fee:	68 78 05 00 00       	push   0x578
     ff3:	56                   	push   esi
     ff4:	e8 fc ff ff ff       	call   ff5 <execute+0xa05>
     ff9:	83 c4 10             	add    esp,0x10
     ffc:	85 c0                	test   eax,eax
     ffe:	75 16                	jne    1016 <execute+0xa26>
    1000:	b9 f4 d6 cd 00       	mov    ecx,0xcdd6f4
    1005:	ba 7b 05 00 00       	mov    edx,0x57b
    100a:	89 d8                	mov    eax,ebx
    100c:	e8 ef ef ff ff       	call   0 <tprint>
    1011:	e9 2e f6 ff ff       	jmp    644 <execute+0x54>
    1016:	50                   	push   eax
    1017:	50                   	push   eax
    1018:	68 95 05 00 00       	push   0x595
    101d:	56                   	push   esi
    101e:	e8 fc ff ff ff       	call   101f <execute+0xa2f>
    1023:	83 c4 10             	add    esp,0x10
    1026:	85 c0                	test   eax,eax
    1028:	0f 84 ba f8 ff ff    	je     8e8 <execute+0x2f8>
    102e:	55                   	push   ebp
    102f:	55                   	push   ebp
    1030:	68 9a 05 00 00       	push   0x59a
    1035:	56                   	push   esi
    1036:	e8 fc ff ff ff       	call   1037 <execute+0xa47>
    103b:	83 c4 10             	add    esp,0x10
    103e:	85 c0                	test   eax,eax
    1040:	0f 85 fa 00 00 00    	jne    1140 <execute+0xb50>
    1046:	b9 f7 a6 cb 00       	mov    ecx,0xcba6f7
    104b:	ba 14 03 00 00       	mov    edx,0x314
    1050:	89 d8                	mov    eax,ebx
    1052:	e8 a9 ef ff ff       	call   0 <tprint>
    1057:	e9 e8 f5 ff ff       	jmp    644 <execute+0x54>
    105c:	a8 df                	test   al,0xdf
    105e:	0f 85 c6 00 00 00    	jne    112a <execute+0xb3a>
    1064:	e8 fc ff ff ff       	call   1065 <execute+0xa75>
    1069:	83 78 18 00          	cmp    DWORD PTR [eax+0x18],0x0
    106d:	0f 84 95 01 00 00    	je     1208 <execute+0xc18>
    1073:	83 ec 0c             	sub    esp,0xc
    1076:	be 3c 00 00 00       	mov    esi,0x3c
    107b:	57                   	push   edi
    107c:	e8 fc ff ff ff       	call   107d <execute+0xa8d>
    1081:	b9 af e2 f9 00       	mov    ecx,0xf9e2af
    1086:	ba 46 05 00 00       	mov    edx,0x546
    108b:	89 d8                	mov    eax,ebx
    108d:	e8 6e ef ff ff       	call   0 <tprint>
    1092:	83 c4 10             	add    esp,0x10
    1095:	8d 7c 24 18          	lea    edi,[esp+0x18]
    1099:	eb 16                	jmp    10b1 <execute+0xac1>
    109b:	83 ec 0c             	sub    esp,0xc
    109e:	6a 32                	push   0x32
    10a0:	e8 fc ff ff ff       	call   10a1 <execute+0xab1>
    10a5:	83 c4 10             	add    esp,0x10
    10a8:	83 ee 01             	sub    esi,0x1
    10ab:	0f 84 12 01 00 00    	je     11c3 <execute+0xbd3>
    10b1:	e8 fc ff ff ff       	call   10b2 <execute+0xac2>
    10b6:	31 ed                	xor    ebp,ebp
    10b8:	83 ec 0c             	sub    esp,0xc
    10bb:	89 6c 24 24          	mov    DWORD PTR [esp+0x24],ebp
    10bf:	57                   	push   edi
    10c0:	e8 fc ff ff ff       	call   10c1 <execute+0xad1>
    10c5:	83 c4 10             	add    esp,0x10
    10c8:	85 c0                	test   eax,eax
    10ca:	74 cf                	je     109b <execute+0xaab>
    10cc:	8d 7c 24 33          	lea    edi,[esp+0x33]
    10d0:	be 33 08 00 00       	mov    esi,0x833
    10d5:	b9 03 00 00 00       	mov    ecx,0x3
    10da:	f3 a5                	rep movs DWORD PTR es:[edi],DWORD PTR ds:[esi]
    10dc:	8d 7c 24 3f          	lea    edi,[esp+0x3f]
    10e0:	89 c8                	mov    eax,ecx
    10e2:	b9 09 00 00 00       	mov    ecx,0x9
    10e7:	f3 ab                	rep stos DWORD PTR es:[edi],eax
    10e9:	50                   	push   eax
    10ea:	6a 0a                	push   0xa
    10ec:	8d 74 24 2b          	lea    esi,[esp+0x2b]
    10f0:	56                   	push   esi
    10f1:	ff 74 24 24          	push   DWORD PTR [esp+0x24]
    10f5:	e8 fc ff ff ff       	call   10f6 <execute+0xb06>
    10fa:	58                   	pop    eax
    10fb:	5a                   	pop    edx
    10fc:	56                   	push   esi
    10fd:	8d 74 24 3f          	lea    esi,[esp+0x3f]
    1101:	56                   	push   esi
    1102:	e8 fc ff ff ff       	call   1103 <execute+0xb13>
    1107:	59                   	pop    ecx
    1108:	5f                   	pop    edi
    1109:	68 51 05 00 00       	push   0x551
    110e:	56                   	push   esi
    110f:	e8 fc ff ff ff       	call   1110 <execute+0xb20>
    1114:	b9 a1 e3 a6 00       	mov    ecx,0xa6e3a1
    1119:	89 f2                	mov    edx,esi
    111b:	89 d8                	mov    eax,ebx
    111d:	e8 de ee ff ff       	call   0 <tprint>
    1122:	83 c4 10             	add    esp,0x10
    1125:	e9 1a f5 ff ff       	jmp    644 <execute+0x54>
    112a:	b9 a8 8b f3 00       	mov    ecx,0xf38ba8
    112f:	ba 16 05 00 00       	mov    edx,0x516
    1134:	89 d8                	mov    eax,ebx
    1136:	e8 c5 ee ff ff       	call   0 <tprint>
    113b:	e9 04 f5 ff ff       	jmp    644 <execute+0x54>
    1140:	57                   	push   edi
    1141:	57                   	push   edi
    1142:	68 a0 05 00 00       	push   0x5a0
    1147:	56                   	push   esi
    1148:	e8 fc ff ff ff       	call   1149 <execute+0xb59>
    114d:	83 c4 10             	add    esp,0x10
    1150:	85 c0                	test   eax,eax
    1152:	0f 85 81 00 00 00    	jne    11d9 <execute+0xbe9>
    1158:	89 d8                	mov    eax,ebx
    115a:	b9 a1 e3 a6 00       	mov    ecx,0xa6e3a1
    115f:	ba a7 05 00 00       	mov    edx,0x5a7
    1164:	e8 97 ee ff ff       	call   0 <tprint>
    1169:	89 d8                	mov    eax,ebx
    116b:	b9 a1 e3 a6 00       	mov    ecx,0xa6e3a1
    1170:	ba ba 05 00 00       	mov    edx,0x5ba
    1175:	e8 86 ee ff ff       	call   0 <tprint>
    117a:	89 d8                	mov    eax,ebx
    117c:	b9 a1 e3 a6 00       	mov    ecx,0xa6e3a1
    1181:	ba d0 05 00 00       	mov    edx,0x5d0
    1186:	e8 75 ee ff ff       	call   0 <tprint>
    118b:	89 d8                	mov    eax,ebx
    118d:	b9 a1 e3 a6 00       	mov    ecx,0xa6e3a1
    1192:	ba 00 00 00 00       	mov    edx,0x0
    1197:	e8 64 ee ff ff       	call   0 <tprint>
    119c:	89 d8                	mov    eax,ebx
    119e:	b9 a1 e3 a6 00       	mov    ecx,0xa6e3a1
    11a3:	ba eb 05 00 00       	mov    edx,0x5eb
    11a8:	e8 53 ee ff ff       	call   0 <tprint>
    11ad:	b9 a1 e3 a6 00       	mov    ecx,0xa6e3a1
    11b2:	ba 08 06 00 00       	mov    edx,0x608
    11b7:	89 d8                	mov    eax,ebx
    11b9:	e8 42 ee ff ff       	call   0 <tprint>
    11be:	e9 81 f4 ff ff       	jmp    644 <execute+0x54>
    11c3:	b9 a8 8b f3 00       	mov    ecx,0xf38ba8
    11c8:	ba 55 05 00 00       	mov    edx,0x555
    11cd:	89 d8                	mov    eax,ebx
    11cf:	e8 2c ee ff ff       	call   0 <tprint>
    11d4:	e9 6b f4 ff ff       	jmp    644 <execute+0x54>
    11d9:	51                   	push   ecx
    11da:	51                   	push   ecx
    11db:	68 1d 06 00 00       	push   0x61d
    11e0:	56                   	push   esi
    11e1:	e8 fc ff ff ff       	call   11e2 <execute+0xbf2>
    11e6:	83 c4 10             	add    esp,0x10
    11e9:	85 c0                	test   eax,eax
    11eb:	75 31                	jne    121e <execute+0xc2e>
    11ed:	e8 fc ff ff ff       	call   11ee <execute+0xbfe>
    11f2:	b9 a1 e3 a6 00       	mov    ecx,0xa6e3a1
    11f7:	ba 22 06 00 00       	mov    edx,0x622
    11fc:	89 d8                	mov    eax,ebx
    11fe:	e8 fd ed ff ff       	call   0 <tprint>
    1203:	e9 3c f4 ff ff       	jmp    644 <execute+0x54>
    1208:	b9 a8 8b f3 00       	mov    ecx,0xf38ba8
    120d:	ba 2b 05 00 00       	mov    edx,0x52b
    1212:	89 d8                	mov    eax,ebx
    1214:	e8 e7 ed ff ff       	call   0 <tprint>
    1219:	e9 26 f4 ff ff       	jmp    644 <execute+0x54>
    121e:	52                   	push   edx
    121f:	52                   	push   edx
    1220:	68 37 06 00 00       	push   0x637
    1225:	56                   	push   esi
    1226:	e8 fc ff ff ff       	call   1227 <execute+0xc37>
    122b:	83 c4 10             	add    esp,0x10
    122e:	85 c0                	test   eax,eax
    1230:	75 1b                	jne    124d <execute+0xc5d>
    1232:	e8 fc ff ff ff       	call   1233 <execute+0xc43>
    1237:	b9 a1 e3 a6 00       	mov    ecx,0xa6e3a1
    123c:	ba 3f 06 00 00       	mov    edx,0x63f
    1241:	89 d8                	mov    eax,ebx
    1243:	e8 b8 ed ff ff       	call   0 <tprint>
    1248:	e9 f7 f3 ff ff       	jmp    644 <execute+0x54>
    124d:	50                   	push   eax
    124e:	50                   	push   eax
    124f:	68 51 06 00 00       	push   0x651
    1254:	56                   	push   esi
    1255:	e8 fc ff ff ff       	call   1256 <execute+0xc66>
    125a:	83 c4 10             	add    esp,0x10
    125d:	85 c0                	test   eax,eax
    125f:	75 1b                	jne    127c <execute+0xc8c>
    1261:	e8 fc ff ff ff       	call   1262 <execute+0xc72>
    1266:	b9 a1 e3 a6 00       	mov    ecx,0xa6e3a1
    126b:	ba 57 06 00 00       	mov    edx,0x657
    1270:	89 d8                	mov    eax,ebx
    1272:	e8 89 ed ff ff       	call   0 <tprint>
    1277:	e9 c8 f3 ff ff       	jmp    644 <execute+0x54>
    127c:	50                   	push   eax
    127d:	50                   	push   eax
    127e:	68 6e 06 00 00       	push   0x66e
    1283:	56                   	push   esi
    1284:	e8 fc ff ff ff       	call   1285 <execute+0xc95>
    1289:	83 c4 10             	add    esp,0x10
    128c:	85 c0                	test   eax,eax
    128e:	75 1b                	jne    12ab <execute+0xcbb>
    1290:	e8 fc ff ff ff       	call   1291 <execute+0xca1>
    1295:	b9 a1 e3 a6 00       	mov    ecx,0xa6e3a1
    129a:	ba 77 06 00 00       	mov    edx,0x677
    129f:	89 d8                	mov    eax,ebx
    12a1:	e8 5a ed ff ff       	call   0 <tprint>
    12a6:	e9 99 f3 ff ff       	jmp    644 <execute+0x54>
    12ab:	50                   	push   eax
    12ac:	50                   	push   eax
    12ad:	68 8a 06 00 00       	push   0x68a
    12b2:	56                   	push   esi
    12b3:	e8 fc ff ff ff       	call   12b4 <execute+0xcc4>
    12b8:	83 c4 10             	add    esp,0x10
    12bb:	85 c0                	test   eax,eax
    12bd:	75 1b                	jne    12da <execute+0xcea>
    12bf:	e8 fc ff ff ff       	call   12c0 <execute+0xcd0>
    12c4:	b9 a1 e3 a6 00       	mov    ecx,0xa6e3a1
    12c9:	ba 92 06 00 00       	mov    edx,0x692
    12ce:	89 d8                	mov    eax,ebx
    12d0:	e8 2b ed ff ff       	call   0 <tprint>
    12d5:	e9 6a f3 ff ff       	jmp    644 <execute+0x54>
    12da:	50                   	push   eax
    12db:	50                   	push   eax
    12dc:	68 a8 06 00 00       	push   0x6a8
    12e1:	56                   	push   esi
    12e2:	e8 fc ff ff ff       	call   12e3 <execute+0xcf3>
    12e7:	83 c4 10             	add    esp,0x10
    12ea:	85 c0                	test   eax,eax
    12ec:	75 1b                	jne    1309 <execute+0xd19>
    12ee:	e8 fc ff ff ff       	call   12ef <execute+0xcff>
    12f3:	b9 a1 e3 a6 00       	mov    ecx,0xa6e3a1
    12f8:	ba b1 06 00 00       	mov    edx,0x6b1
    12fd:	89 d8                	mov    eax,ebx
    12ff:	e8 fc ec ff ff       	call   0 <tprint>
    1304:	e9 3b f3 ff ff       	jmp    644 <execute+0x54>
    1309:	50                   	push   eax
    130a:	50                   	push   eax
    130b:	68 c4 06 00 00       	push   0x6c4
    1310:	56                   	push   esi
    1311:	e8 fc ff ff ff       	call   1312 <execute+0xd22>
    1316:	83 c4 10             	add    esp,0x10
    1319:	85 c0                	test   eax,eax
    131b:	75 2d                	jne    134a <execute+0xd5a>
    131d:	89 d8                	mov    eax,ebx
    131f:	b9 af e2 f9 00       	mov    ecx,0xf9e2af
    1324:	ba cb 06 00 00       	mov    edx,0x6cb
    1329:	e8 d2 ec ff ff       	call   0 <tprint>
    132e:	83 ec 0c             	sub    esp,0xc
    1331:	68 f4 01 00 00       	push   0x1f4
    1336:	e8 fc ff ff ff       	call   1337 <execute+0xd47>
    133b:	b8 fe ff ff ff       	mov    eax,0xfffffffe
    1340:	e6 64                	out    0x64,al
    1342:	83 c4 10             	add    esp,0x10
    1345:	e9 fa f2 ff ff       	jmp    644 <execute+0x54>
    134a:	55                   	push   ebp
    134b:	55                   	push   ebp
    134c:	68 da 06 00 00       	push   0x6da
    1351:	56                   	push   esi
    1352:	e8 fc ff ff ff       	call   1353 <execute+0xd63>
    1357:	83 c4 10             	add    esp,0x10
    135a:	85 c0                	test   eax,eax
    135c:	75 11                	jne    136f <execute+0xd7f>
    135e:	ba b1 01 00 00       	mov    edx,0x1b1
    1363:	89 d8                	mov    eax,ebx
    1365:	e8 76 f0 ff ff       	call   3e0 <cmd_ls>
    136a:	e9 d5 f2 ff ff       	jmp    644 <execute+0x54>
    136f:	57                   	push   edi
    1370:	6a 03                	push   0x3
    1372:	68 dd 06 00 00       	push   0x6dd
    1377:	56                   	push   esi
    1378:	e8 fc ff ff ff       	call   1379 <execute+0xd89>
    137d:	83 c4 10             	add    esp,0x10
    1380:	85 c0                	test   eax,eax
    1382:	75 0f                	jne    1393 <execute+0xda3>
    1384:	8d 56 03             	lea    edx,[esi+0x3]
    1387:	89 d8                	mov    eax,ebx
    1389:	e8 52 f0 ff ff       	call   3e0 <cmd_ls>
    138e:	e9 b1 f2 ff ff       	jmp    644 <execute+0x54>
    1393:	51                   	push   ecx
    1394:	6a 04                	push   0x4
    1396:	68 e1 06 00 00       	push   0x6e1
    139b:	56                   	push   esi
    139c:	e8 fc ff ff ff       	call   139d <execute+0xdad>
    13a1:	83 c4 10             	add    esp,0x10
    13a4:	85 c0                	test   eax,eax
    13a6:	75 1c                	jne    13c4 <execute+0xdd4>
    13a8:	80 7e 04 00          	cmp    BYTE PTR [esi+0x4],0x0
    13ac:	75 3f                	jne    13ed <execute+0xdfd>
    13ae:	b9 a8 8b f3 00       	mov    ecx,0xf38ba8
    13b3:	ba e6 06 00 00       	mov    edx,0x6e6
    13b8:	89 d8                	mov    eax,ebx
    13ba:	e8 41 ec ff ff       	call   0 <tprint>
    13bf:	e9 80 f2 ff ff       	jmp    644 <execute+0x54>
    13c4:	50                   	push   eax
    13c5:	6a 05                	push   0x5
    13c7:	68 d9 07 00 00       	push   0x7d9
    13cc:	56                   	push   esi
    13cd:	e8 fc ff ff ff       	call   13ce <execute+0xdde>
    13d2:	83 c4 10             	add    esp,0x10
    13d5:	85 c0                	test   eax,eax
    13d7:	75 74                	jne    144d <execute+0xe5d>
    13d9:	8d 56 05             	lea    edx,[esi+0x5]
    13dc:	b9 f4 d6 cd 00       	mov    ecx,0xcdd6f4
    13e1:	89 d8                	mov    eax,ebx
    13e3:	e8 18 ec ff ff       	call   0 <tprint>
    13e8:	e9 57 f2 ff ff       	jmp    644 <execute+0x54>
    13ed:	83 c6 04             	add    esi,0x4
    13f0:	52                   	push   edx
    13f1:	52                   	push   edx
    13f2:	68 fa 06 00 00       	push   0x6fa
    13f7:	56                   	push   esi
    13f8:	e8 fc ff ff ff       	call   13f9 <execute+0xe09>
    13fd:	83 c4 10             	add    esp,0x10
    1400:	85 c0                	test   eax,eax
    1402:	75 71                	jne    1475 <execute+0xe85>
    1404:	89 d8                	mov    eax,ebx
    1406:	b9 86 70 6c 00       	mov    ecx,0x6c7086
    140b:	ba 0b 07 00 00       	mov    edx,0x70b
    1410:	e8 eb eb ff ff       	call   0 <tprint>
    1415:	89 d8                	mov    eax,ebx
    1417:	b9 f4 d6 cd 00       	mov    ecx,0xcdd6f4
    141c:	ba 24 07 00 00       	mov    edx,0x724
    1421:	e8 da eb ff ff       	call   0 <tprint>
    1426:	89 d8                	mov    eax,ebx
    1428:	b9 f4 d6 cd 00       	mov    ecx,0xcdd6f4
    142d:	ba 3d 07 00 00       	mov    edx,0x73d
    1432:	e8 c9 eb ff ff       	call   0 <tprint>
    1437:	b9 f4 d6 cd 00       	mov    ecx,0xcdd6f4
    143c:	ba 53 07 00 00       	mov    edx,0x753
    1441:	89 d8                	mov    eax,ebx
    1443:	e8 b8 eb ff ff       	call   0 <tprint>
    1448:	e9 f7 f1 ff ff       	jmp    644 <execute+0x54>
    144d:	50                   	push   eax
    144e:	6a 07                	push   0x7
    1450:	68 df 07 00 00       	push   0x7df
    1455:	56                   	push   esi
    1456:	e8 fc ff ff ff       	call   1457 <execute+0xe67>
    145b:	83 c4 10             	add    esp,0x10
    145e:	85 c0                	test   eax,eax
    1460:	0f 85 92 00 00 00    	jne    14f8 <execute+0xf08>
    1466:	8d 56 07             	lea    edx,[esi+0x7]
    1469:	89 d8                	mov    eax,ebx
    146b:	e8 c0 ed ff ff       	call   230 <cmd_cowsay>
    1470:	e9 cf f1 ff ff       	jmp    644 <execute+0x54>
    1475:	50                   	push   eax
    1476:	50                   	push   eax
    1477:	68 68 07 00 00       	push   0x768
    147c:	56                   	push   esi
    147d:	e8 fc ff ff ff       	call   147e <execute+0xe8e>
    1482:	83 c4 10             	add    esp,0x10
    1485:	85 c0                	test   eax,eax
    1487:	0f 85 8d 00 00 00    	jne    151a <execute+0xf2a>
    148d:	89 d8                	mov    eax,ebx
    148f:	b9 f4 d6 cd 00       	mov    ecx,0xcdd6f4
    1494:	ba 7c 07 00 00       	mov    edx,0x77c
    1499:	e8 62 eb ff ff       	call   0 <tprint>
    149e:	89 d8                	mov    eax,ebx
    14a0:	b9 f4 d6 cd 00       	mov    ecx,0xcdd6f4
    14a5:	ba 98 07 00 00       	mov    edx,0x798
    14aa:	e8 51 eb ff ff       	call   0 <tprint>
    14af:	89 d8                	mov    eax,ebx
    14b1:	b9 f4 d6 cd 00       	mov    ecx,0xcdd6f4
    14b6:	ba 40 03 00 00       	mov    edx,0x340
    14bb:	e8 40 eb ff ff       	call   0 <tprint>
    14c0:	89 d8                	mov    eax,ebx
    14c2:	b9 a1 e3 a6 00       	mov    ecx,0xa6e3a1
    14c7:	ba 64 03 00 00       	mov    edx,0x364
    14cc:	e8 2f eb ff ff       	call   0 <tprint>
    14d1:	89 d8                	mov    eax,ebx
    14d3:	b9 a1 e3 a6 00       	mov    ecx,0xa6e3a1
    14d8:	ba 88 03 00 00       	mov    edx,0x388
    14dd:	e8 1e eb ff ff       	call   0 <tprint>
    14e2:	b9 a1 e3 a6 00       	mov    ecx,0xa6e3a1
    14e7:	ba ad 07 00 00       	mov    edx,0x7ad
    14ec:	89 d8                	mov    eax,ebx
    14ee:	e8 0d eb ff ff       	call   0 <tprint>
    14f3:	e9 4c f1 ff ff       	jmp    644 <execute+0x54>
    14f8:	50                   	push   eax
    14f9:	50                   	push   eax
    14fa:	68 e7 07 00 00       	push   0x7e7
    14ff:	56                   	push   esi
    1500:	e8 fc ff ff ff       	call   1501 <execute+0xf11>
    1505:	83 c4 10             	add    esp,0x10
    1508:	85 c0                	test   eax,eax
    150a:	75 24                	jne    1530 <execute+0xf40>
    150c:	31 d2                	xor    edx,edx
    150e:	89 d8                	mov    eax,ebx
    1510:	e8 1b ed ff ff       	call   230 <cmd_cowsay>
    1515:	e9 2a f1 ff ff       	jmp    644 <execute+0x54>
    151a:	b9 a8 8b f3 00       	mov    ecx,0xf38ba8
    151f:	ba c3 07 00 00       	mov    edx,0x7c3
    1524:	89 d8                	mov    eax,ebx
    1526:	e8 d5 ea ff ff       	call   0 <tprint>
    152b:	e9 14 f1 ff ff       	jmp    644 <execute+0x54>
    1530:	50                   	push   eax
    1531:	50                   	push   eax
    1532:	68 ee 07 00 00       	push   0x7ee
    1537:	56                   	push   esi
    1538:	e8 fc ff ff ff       	call   1539 <execute+0xf49>
    153d:	83 c4 10             	add    esp,0x10
    1540:	85 c0                	test   eax,eax
    1542:	75 16                	jne    155a <execute+0xf6a>
    1544:	b9 a8 8b f3 00       	mov    ecx,0xf38ba8
    1549:	ba f3 07 00 00       	mov    edx,0x7f3
    154e:	89 d8                	mov    eax,ebx
    1550:	e8 ab ea ff ff       	call   0 <tprint>
    1555:	e9 ea f0 ff ff       	jmp    644 <execute+0x54>
    155a:	55                   	push   ebp
    155b:	55                   	push   ebp
    155c:	68 09 08 00 00       	push   0x809
    1561:	56                   	push   esi
    1562:	e8 fc ff ff ff       	call   1563 <execute+0xf73>
    1567:	83 c4 10             	add    esp,0x10
    156a:	85 c0                	test   eax,eax
    156c:	75 16                	jne    1584 <execute+0xf94>
    156e:	b9 af e2 f9 00       	mov    ecx,0xf9e2af
    1573:	ba ac 03 00 00       	mov    edx,0x3ac
    1578:	89 d8                	mov    eax,ebx
    157a:	e8 81 ea ff ff       	call   0 <tprint>
    157f:	e9 c0 f0 ff ff       	jmp    644 <execute+0x54>
    1584:	57                   	push   edi
    1585:	6a 05                	push   0x5
    1587:	68 0e 08 00 00       	push   0x80e
    158c:	56                   	push   esi
    158d:	e8 fc ff ff ff       	call   158e <execute+0xf9e>
    1592:	83 c4 10             	add    esp,0x10
    1595:	85 c0                	test   eax,eax
    1597:	75 16                	jne    15af <execute+0xfbf>
    1599:	b9 af e2 f9 00       	mov    ecx,0xf9e2af
    159e:	ba d4 03 00 00       	mov    edx,0x3d4
    15a3:	89 d8                	mov    eax,ebx
    15a5:	e8 56 ea ff ff       	call   0 <tprint>
    15aa:	e9 95 f0 ff ff       	jmp    644 <execute+0x54>
    15af:	51                   	push   ecx
    15b0:	51                   	push   ecx
    15b1:	68 14 08 00 00       	push   0x814
    15b6:	56                   	push   esi
    15b7:	e8 fc ff ff ff       	call   15b8 <execute+0xfc8>
    15bc:	83 c4 10             	add    esp,0x10
    15bf:	85 c0                	test   eax,eax
    15c1:	75 16                	jne    15d9 <execute+0xfe9>
    15c3:	b9 a8 8b f3 00       	mov    ecx,0xf38ba8
    15c8:	ba f8 03 00 00       	mov    edx,0x3f8
    15cd:	89 d8                	mov    eax,ebx
    15cf:	e8 2c ea ff ff       	call   0 <tprint>
    15d4:	e9 6b f0 ff ff       	jmp    644 <execute+0x54>
    15d9:	c6 44 24 33 00       	mov    BYTE PTR [esp+0x33],0x0
    15de:	50                   	push   eax
    15df:	50                   	push   eax
    15e0:	68 1d 08 00 00       	push   0x81d
    15e5:	8d 7c 24 3f          	lea    edi,[esp+0x3f]
    15e9:	57                   	push   edi
    15ea:	e8 fc ff ff ff       	call   15eb <execute+0xffb>
    15ef:	58                   	pop    eax
    15f0:	5a                   	pop    edx
    15f1:	56                   	push   esi
    15f2:	57                   	push   edi
    15f3:	e8 fc ff ff ff       	call   15f4 <execute+0x1004>
    15f8:	b9 a8 8b f3 00       	mov    ecx,0xf38ba8
    15fd:	89 fa                	mov    edx,edi
    15ff:	89 d8                	mov    eax,ebx
    1601:	e8 fa e9 ff ff       	call   0 <tprint>
    1606:	83 c4 10             	add    esp,0x10
    1609:	e9 36 f0 ff ff       	jmp    644 <execute+0x54>
    160e:	66 90                	xchg   ax,ax

00001610 <terminal_create>:
    1610:	53                   	push   ebx
    1611:	31 db                	xor    ebx,ebx
    1613:	83 ec 08             	sub    esp,0x8
    1616:	a1 00 00 00 00       	mov    eax,ds:0x0
    161b:	83 f8 0f             	cmp    eax,0xf
    161e:	7f 5b                	jg     167b <terminal_create+0x6b>
    1620:	8d 50 01             	lea    edx,[eax+0x1]
    1623:	83 ec 04             	sub    esp,0x4
    1626:	69 c0 ac 18 00 00    	imul   eax,eax,0x18ac
    162c:	68 ac 18 00 00       	push   0x18ac
    1631:	6a 00                	push   0x0
    1633:	89 15 00 00 00 00    	mov    DWORD PTR ds:0x0,edx
    1639:	8d 98 20 00 00 00    	lea    ebx,[eax+0x20]
    163f:	53                   	push   ebx
    1640:	e8 fc ff ff ff       	call   1641 <terminal_create+0x31>
    1645:	b9 fa b4 89 00       	mov    ecx,0x89b4fa
    164a:	ba 20 04 00 00       	mov    edx,0x420
    164f:	89 d8                	mov    eax,ebx
    1651:	e8 aa e9 ff ff       	call   0 <tprint>
    1656:	b9 c8 ad a6 00       	mov    ecx,0xa6adc8
    165b:	ba 44 04 00 00       	mov    edx,0x444
    1660:	89 d8                	mov    eax,ebx
    1662:	e8 99 e9 ff ff       	call   0 <tprint>
    1667:	b9 f4 d6 cd 00       	mov    ecx,0xcdd6f4
    166c:	ba 00 00 00 00       	mov    edx,0x0
    1671:	89 d8                	mov    eax,ebx
    1673:	e8 88 e9 ff ff       	call   0 <tprint>
    1678:	83 c4 10             	add    esp,0x10
    167b:	83 c4 08             	add    esp,0x8
    167e:	89 d8                	mov    eax,ebx
    1680:	5b                   	pop    ebx
    1681:	c3                   	ret
    1682:	8d b6 00 00 00 00    	lea    esi,[esi+0x0]
    1688:	2e 8d b4 26 00 00 00 	lea    esi,cs:[esi+eiz*1+0x0]
    168f:	00 

00001690 <terminal_draw>:
    1690:	55                   	push   ebp
    1691:	57                   	push   edi
    1692:	56                   	push   esi
    1693:	53                   	push   ebx
    1694:	83 ec 1c             	sub    esp,0x1c
    1697:	8b 44 24 30          	mov    eax,DWORD PTR [esp+0x30]
    169b:	8b 68 68             	mov    ebp,DWORD PTR [eax+0x68]
    169e:	85 ed                	test   ebp,ebp
    16a0:	0f 84 07 01 00 00    	je     17ad <terminal_draw+0x11d>
    16a6:	8b 10                	mov    edx,DWORD PTR [eax]
    16a8:	8d 72 08             	lea    esi,[edx+0x8]
    16ab:	8b 50 04             	mov    edx,DWORD PTR [eax+0x4]
    16ae:	8b 40 0c             	mov    eax,DWORD PTR [eax+0xc]
    16b1:	8d 48 e7             	lea    ecx,[eax-0x19]
    16b4:	83 e8 28             	sub    eax,0x28
    16b7:	89 54 24 08          	mov    DWORD PTR [esp+0x8],edx
    16bb:	0f 49 c8             	cmovns ecx,eax
    16be:	b8 18 00 00 00       	mov    eax,0x18
    16c3:	c1 f9 04             	sar    ecx,0x4
    16c6:	83 e9 01             	sub    ecx,0x1
    16c9:	39 c1                	cmp    ecx,eax
    16cb:	0f 4f c8             	cmovg  ecx,eax
    16ce:	8b 85 98 07 00 00    	mov    eax,DWORD PTR [ebp+0x798]
    16d4:	89 c7                	mov    edi,eax
    16d6:	29 cf                	sub    edi,ecx
    16d8:	39 c8                	cmp    eax,ecx
    16da:	b9 00 00 00 00       	mov    ecx,0x0
    16df:	0f 4f cf             	cmovg  ecx,edi
    16e2:	89 4c 24 0c          	mov    DWORD PTR [esp+0xc],ecx
    16e6:	89 cb                	mov    ebx,ecx
    16e8:	39 c8                	cmp    eax,ecx
    16ea:	7e 2b                	jle    1717 <terminal_draw+0x87>
    16ec:	8d 7a 22             	lea    edi,[edx+0x22]
    16ef:	90                   	nop
    16f0:	6b c3 4d             	imul   eax,ebx,0x4d
    16f3:	ff b4 9d 38 07 00 00 	push   DWORD PTR [ebp+ebx*4+0x738]
    16fa:	83 c3 01             	add    ebx,0x1
    16fd:	01 e8                	add    eax,ebp
    16ff:	50                   	push   eax
    1700:	57                   	push   edi
    1701:	83 c7 10             	add    edi,0x10
    1704:	56                   	push   esi
    1705:	e8 fc ff ff ff       	call   1706 <terminal_draw+0x76>
    170a:	8b 85 98 07 00 00    	mov    eax,DWORD PTR [ebp+0x798]
    1710:	83 c4 10             	add    esp,0x10
    1713:	39 d8                	cmp    eax,ebx
    1715:	7f d9                	jg     16f0 <terminal_draw+0x60>
    1717:	8b 54 24 08          	mov    edx,DWORD PTR [esp+0x8]
    171b:	2b 44 24 0c          	sub    eax,DWORD PTR [esp+0xc]
    171f:	83 ec 0c             	sub    esp,0xc
    1722:	68 00 00 00 00       	push   0x0
    1727:	c1 e0 04             	shl    eax,0x4
    172a:	8d 5c 02 22          	lea    ebx,[edx+eax*1+0x22]
    172e:	e8 fc ff ff ff       	call   172f <terminal_draw+0x9f>
    1733:	89 44 24 18          	mov    DWORD PTR [esp+0x18],eax
    1737:	89 c7                	mov    edi,eax
    1739:	68 a1 e3 a6 00       	push   0xa6e3a1
    173e:	c1 e7 03             	shl    edi,0x3
    1741:	68 00 00 00 00       	push   0x0
    1746:	53                   	push   ebx
    1747:	56                   	push   esi
    1748:	e8 fc ff ff ff       	call   1749 <terminal_draw+0xb9>
    174d:	83 c4 20             	add    esp,0x20
    1750:	8d 04 37             	lea    eax,[edi+esi*1]
    1753:	68 fa b4 89 00       	push   0x89b4fa
    1758:	68 3f 08 00 00       	push   0x83f
    175d:	53                   	push   ebx
    175e:	50                   	push   eax
    175f:	e8 fc ff ff ff       	call   1760 <terminal_draw+0xd0>
    1764:	8d 44 37 38          	lea    eax,[edi+esi*1+0x38]
    1768:	68 f4 d6 cd 00       	push   0xcdd6f4
    176d:	68 47 08 00 00       	push   0x847
    1772:	53                   	push   ebx
    1773:	50                   	push   eax
    1774:	e8 fc ff ff ff       	call   1775 <terminal_draw+0xe5>
    1779:	83 c4 20             	add    esp,0x20
    177c:	8d 85 9c 07 00 00    	lea    eax,[ebp+0x79c]
    1782:	68 f4 d6 cd 00       	push   0xcdd6f4
    1787:	50                   	push   eax
    1788:	8d 44 37 50          	lea    eax,[edi+esi*1+0x50]
    178c:	53                   	push   ebx
    178d:	50                   	push   eax
    178e:	e8 fc ff ff ff       	call   178f <terminal_draw+0xff>
    1793:	8b ad a0 08 00 00    	mov    ebp,DWORD PTR [ebp+0x8a0]
    1799:	e8 fc ff ff ff       	call   179a <terminal_draw+0x10a>
    179e:	ba cd cc cc cc       	mov    edx,0xcccccccd
    17a3:	83 c4 10             	add    esp,0x10
    17a6:	f7 e2                	mul    edx
    17a8:	83 e2 20             	and    edx,0x20
    17ab:	75 0b                	jne    17b8 <terminal_draw+0x128>
    17ad:	83 c4 1c             	add    esp,0x1c
    17b0:	5b                   	pop    ebx
    17b1:	5e                   	pop    esi
    17b2:	5f                   	pop    edi
    17b3:	5d                   	pop    ebp
    17b4:	c3                   	ret
    17b5:	8d 76 00             	lea    esi,[esi+0x0]
    17b8:	83 ec 0c             	sub    esp,0xc
    17bb:	68 fa b4 89 00       	push   0x89b4fa
    17c0:	6a 10                	push   0x10
    17c2:	6a 02                	push   0x2
    17c4:	53                   	push   ebx
    17c5:	8b 44 24 24          	mov    eax,DWORD PTR [esp+0x24]
    17c9:	8d 44 05 0a          	lea    eax,[ebp+eax*1+0xa]
    17cd:	8d 04 c6             	lea    eax,[esi+eax*8]
    17d0:	50                   	push   eax
    17d1:	e8 fc ff ff ff       	call   17d2 <terminal_draw+0x142>
    17d6:	83 c4 20             	add    esp,0x20
    17d9:	83 c4 1c             	add    esp,0x1c
    17dc:	5b                   	pop    ebx
    17dd:	5e                   	pop    esi
    17de:	5f                   	pop    edi
    17df:	5d                   	pop    ebp
    17e0:	c3                   	ret
    17e1:	8d b4 26 00 00 00 00 	lea    esi,[esi+eiz*1+0x0]
    17e8:	2e 8d b4 26 00 00 00 	lea    esi,cs:[esi+eiz*1+0x0]
    17ef:	00 

000017f0 <terminal_on_key>:
    17f0:	57                   	push   edi
    17f1:	56                   	push   esi
    17f2:	53                   	push   ebx
    17f3:	83 ec 10             	sub    esp,0x10
    17f6:	8b 44 24 20          	mov    eax,DWORD PTR [esp+0x20]
    17fa:	8b 54 24 24          	mov    edx,DWORD PTR [esp+0x24]
    17fe:	8b 58 68             	mov    ebx,DWORD PTR [eax+0x68]
    1801:	85 db                	test   ebx,ebx
    1803:	74 5b                	je     1860 <terminal_on_key+0x70>
    1805:	80 fa 0a             	cmp    dl,0xa
    1808:	0f 8f 22 02 00 00    	jg     1a30 <terminal_on_key+0x240>
    180e:	80 fa f8             	cmp    dl,0xf8
    1811:	7c 4d                	jl     1860 <terminal_on_key+0x70>
    1813:	83 c2 08             	add    edx,0x8
    1816:	80 fa 12             	cmp    dl,0x12
    1819:	77 45                	ja     1860 <terminal_on_key+0x70>
    181b:	0f b6 d2             	movzx  edx,dl
    181e:	ff 24 95 00 00 00 00 	jmp    DWORD PTR [edx*4+0x0]
    1825:	8d 76 00             	lea    esi,[esi+0x0]
    1828:	8b 93 a4 18 00 00    	mov    edx,DWORD PTR [ebx+0x18a4]
    182e:	8b 83 a8 18 00 00    	mov    eax,DWORD PTR [ebx+0x18a8]
    1834:	8d 4a ff             	lea    ecx,[edx-0x1]
    1837:	39 c8                	cmp    eax,ecx
    1839:	0f 8c 61 02 00 00    	jl     1aa0 <terminal_on_key+0x2b0>
    183f:	89 93 a8 18 00 00    	mov    DWORD PTR [ebx+0x18a8],edx
    1845:	c6 83 9c 07 00 00 00 	mov    BYTE PTR [ebx+0x79c],0x0
    184c:	c7 83 9c 08 00 00 00 	mov    DWORD PTR [ebx+0x89c],0x0
    1853:	00 00 00 
    1856:	c7 83 a0 08 00 00 00 	mov    DWORD PTR [ebx+0x8a0],0x0
    185d:	00 00 00 
    1860:	83 c4 10             	add    esp,0x10
    1863:	5b                   	pop    ebx
    1864:	5e                   	pop    esi
    1865:	5f                   	pop    edi
    1866:	c3                   	ret
    1867:	90                   	nop
    1868:	2e 8d b4 26 00 00 00 	lea    esi,cs:[esi+eiz*1+0x0]
    186f:	00 
    1870:	8b 83 9c 08 00 00    	mov    eax,DWORD PTR [ebx+0x89c]
    1876:	89 83 a0 08 00 00    	mov    DWORD PTR [ebx+0x8a0],eax
    187c:	eb e2                	jmp    1860 <terminal_on_key+0x70>
    187e:	66 90                	xchg   ax,ax
    1880:	8b 83 a0 08 00 00    	mov    eax,DWORD PTR [ebx+0x8a0]
    1886:	8b 93 9c 08 00 00    	mov    edx,DWORD PTR [ebx+0x89c]
    188c:	39 d0                	cmp    eax,edx
    188e:	7d d0                	jge    1860 <terminal_on_key+0x70>
    1890:	83 ec 04             	sub    esp,0x4
    1893:	29 c2                	sub    edx,eax
    1895:	52                   	push   edx
    1896:	8d 94 03 9d 07 00 00 	lea    edx,[ebx+eax*1+0x79d]
    189d:	8d 84 03 9c 07 00 00 	lea    eax,[ebx+eax*1+0x79c]
    18a4:	52                   	push   edx
    18a5:	50                   	push   eax
    18a6:	e8 fc ff ff ff       	call   18a7 <terminal_on_key+0xb7>
    18ab:	83 ab 9c 08 00 00 01 	sub    DWORD PTR [ebx+0x89c],0x1
    18b2:	83 c4 10             	add    esp,0x10
    18b5:	eb a9                	jmp    1860 <terminal_on_key+0x70>
    18b7:	90                   	nop
    18b8:	2e 8d b4 26 00 00 00 	lea    esi,cs:[esi+eiz*1+0x0]
    18bf:	00 
    18c0:	8b 83 9c 08 00 00    	mov    eax,DWORD PTR [ebx+0x89c]
    18c6:	8d bb 9c 07 00 00    	lea    edi,[ebx+0x79c]
    18cc:	c6 84 03 9c 07 00 00 	mov    BYTE PTR [ebx+eax*1+0x79c],0x0
    18d3:	00 
    18d4:	80 bb 9c 07 00 00 00 	cmp    BYTE PTR [ebx+0x79c],0x0
    18db:	74 2e                	je     190b <terminal_on_key+0x11b>
    18dd:	8b 83 a4 18 00 00    	mov    eax,DWORD PTR [ebx+0x18a4]
    18e3:	85 c0                	test   eax,eax
    18e5:	0f 8f c5 01 00 00    	jg     1ab0 <terminal_on_key+0x2c0>
    18eb:	8d 50 01             	lea    edx,[eax+0x1]
    18ee:	c1 e0 08             	shl    eax,0x8
    18f1:	05 a4 08 00 00       	add    eax,0x8a4
    18f6:	83 ec 08             	sub    esp,0x8
    18f9:	01 d8                	add    eax,ebx
    18fb:	89 93 a4 18 00 00    	mov    DWORD PTR [ebx+0x18a4],edx
    1901:	57                   	push   edi
    1902:	50                   	push   eax
    1903:	e8 fc ff ff ff       	call   1904 <terminal_on_key+0x114>
    1908:	83 c4 10             	add    esp,0x10
    190b:	89 d8                	mov    eax,ebx
    190d:	89 fa                	mov    edx,edi
    190f:	e8 dc ec ff ff       	call   5f0 <execute>
    1914:	8b 83 a4 18 00 00    	mov    eax,DWORD PTR [ebx+0x18a4]
    191a:	c7 83 9c 08 00 00 00 	mov    DWORD PTR [ebx+0x89c],0x0
    1921:	00 00 00 
    1924:	c7 83 a0 08 00 00 00 	mov    DWORD PTR [ebx+0x8a0],0x0
    192b:	00 00 00 
    192e:	c6 83 9c 07 00 00 00 	mov    BYTE PTR [ebx+0x79c],0x0
    1935:	89 83 a8 18 00 00    	mov    DWORD PTR [ebx+0x18a8],eax
    193b:	e9 20 ff ff ff       	jmp    1860 <terminal_on_key+0x70>
    1940:	8b 83 a0 08 00 00    	mov    eax,DWORD PTR [ebx+0x8a0]
    1946:	85 c0                	test   eax,eax
    1948:	0f 8e 12 ff ff ff    	jle    1860 <terminal_on_key+0x70>
    194e:	8b 93 9c 08 00 00    	mov    edx,DWORD PTR [ebx+0x89c]
    1954:	83 ec 04             	sub    esp,0x4
    1957:	29 c2                	sub    edx,eax
    1959:	83 c2 01             	add    edx,0x1
    195c:	52                   	push   edx
    195d:	8d 94 03 9c 07 00 00 	lea    edx,[ebx+eax*1+0x79c]
    1964:	8d 84 03 9b 07 00 00 	lea    eax,[ebx+eax*1+0x79b]
    196b:	52                   	push   edx
    196c:	50                   	push   eax
    196d:	e8 fc ff ff ff       	call   196e <terminal_on_key+0x17e>
    1972:	83 ab a0 08 00 00 01 	sub    DWORD PTR [ebx+0x8a0],0x1
    1979:	83 c4 10             	add    esp,0x10
    197c:	83 ab 9c 08 00 00 01 	sub    DWORD PTR [ebx+0x89c],0x1
    1983:	e9 d8 fe ff ff       	jmp    1860 <terminal_on_key+0x70>
    1988:	2e 8d b4 26 00 00 00 	lea    esi,cs:[esi+eiz*1+0x0]
    198f:	00 
    1990:	8b 83 a8 18 00 00    	mov    eax,DWORD PTR [ebx+0x18a8]
    1996:	85 c0                	test   eax,eax
    1998:	0f 8e c2 fe ff ff    	jle    1860 <terminal_on_key+0x70>
    199e:	83 e8 01             	sub    eax,0x1
    19a1:	89 83 a8 18 00 00    	mov    DWORD PTR [ebx+0x18a8],eax
    19a7:	c1 e0 08             	shl    eax,0x8
    19aa:	83 ec 08             	sub    esp,0x8
    19ad:	8d 93 9c 07 00 00    	lea    edx,[ebx+0x79c]
    19b3:	8d 84 03 a4 08 00 00 	lea    eax,[ebx+eax*1+0x8a4]
    19ba:	50                   	push   eax
    19bb:	52                   	push   edx
    19bc:	89 54 24 1c          	mov    DWORD PTR [esp+0x1c],edx
    19c0:	e8 fc ff ff ff       	call   19c1 <terminal_on_key+0x1d1>
    19c5:	8b 54 24 1c          	mov    edx,DWORD PTR [esp+0x1c]
    19c9:	89 14 24             	mov    DWORD PTR [esp],edx
    19cc:	e8 fc ff ff ff       	call   19cd <terminal_on_key+0x1dd>
    19d1:	83 c4 10             	add    esp,0x10
    19d4:	89 83 9c 08 00 00    	mov    DWORD PTR [ebx+0x89c],eax
    19da:	89 83 a0 08 00 00    	mov    DWORD PTR [ebx+0x8a0],eax
    19e0:	e9 7b fe ff ff       	jmp    1860 <terminal_on_key+0x70>
    19e5:	8d 76 00             	lea    esi,[esi+0x0]
    19e8:	8b 83 a0 08 00 00    	mov    eax,DWORD PTR [ebx+0x8a0]
    19ee:	85 c0                	test   eax,eax
    19f0:	0f 8e 6a fe ff ff    	jle    1860 <terminal_on_key+0x70>
    19f6:	83 e8 01             	sub    eax,0x1
    19f9:	89 83 a0 08 00 00    	mov    DWORD PTR [ebx+0x8a0],eax
    19ff:	e9 5c fe ff ff       	jmp    1860 <terminal_on_key+0x70>
    1a04:	8d 74 26 00          	lea    esi,[esi+eiz*1+0x0]
    1a08:	8b 83 a0 08 00 00    	mov    eax,DWORD PTR [ebx+0x8a0]
    1a0e:	3b 83 9c 08 00 00    	cmp    eax,DWORD PTR [ebx+0x89c]
    1a14:	0f 8d 46 fe ff ff    	jge    1860 <terminal_on_key+0x70>
    1a1a:	83 c0 01             	add    eax,0x1
    1a1d:	89 83 a0 08 00 00    	mov    DWORD PTR [ebx+0x8a0],eax
    1a23:	e9 38 fe ff ff       	jmp    1860 <terminal_on_key+0x70>
    1a28:	2e 8d b4 26 00 00 00 	lea    esi,cs:[esi+eiz*1+0x0]
    1a2f:	00 
    1a30:	8d 42 e0             	lea    eax,[edx-0x20]
    1a33:	3c 5e                	cmp    al,0x5e
    1a35:	0f 87 25 fe ff ff    	ja     1860 <terminal_on_key+0x70>
    1a3b:	8b 83 9c 08 00 00    	mov    eax,DWORD PTR [ebx+0x89c]
    1a41:	3d fe 00 00 00       	cmp    eax,0xfe
    1a46:	0f 8f 14 fe ff ff    	jg     1860 <terminal_on_key+0x70>
    1a4c:	8b 8b a0 08 00 00    	mov    ecx,DWORD PTR [ebx+0x8a0]
    1a52:	89 54 24 0c          	mov    DWORD PTR [esp+0xc],edx
    1a56:	83 ec 04             	sub    esp,0x4
    1a59:	29 c8                	sub    eax,ecx
    1a5b:	83 c0 01             	add    eax,0x1
    1a5e:	50                   	push   eax
    1a5f:	8d 84 0b 9c 07 00 00 	lea    eax,[ebx+ecx*1+0x79c]
    1a66:	50                   	push   eax
    1a67:	8d 84 0b 9d 07 00 00 	lea    eax,[ebx+ecx*1+0x79d]
    1a6e:	50                   	push   eax
    1a6f:	e8 fc ff ff ff       	call   1a70 <terminal_on_key+0x280>
    1a74:	8b 83 a0 08 00 00    	mov    eax,DWORD PTR [ebx+0x8a0]
    1a7a:	8b 54 24 1c          	mov    edx,DWORD PTR [esp+0x1c]
    1a7e:	83 c4 10             	add    esp,0x10
    1a81:	88 94 03 9c 07 00 00 	mov    BYTE PTR [ebx+eax*1+0x79c],dl
    1a88:	83 c0 01             	add    eax,0x1
    1a8b:	83 83 9c 08 00 00 01 	add    DWORD PTR [ebx+0x89c],0x1
    1a92:	89 83 a0 08 00 00    	mov    DWORD PTR [ebx+0x8a0],eax
    1a98:	e9 c3 fd ff ff       	jmp    1860 <terminal_on_key+0x70>
    1a9d:	8d 76 00             	lea    esi,[esi+0x0]
    1aa0:	83 c0 01             	add    eax,0x1
    1aa3:	e9 f9 fe ff ff       	jmp    19a1 <terminal_on_key+0x1b1>
    1aa8:	2e 8d b4 26 00 00 00 	lea    esi,cs:[esi+eiz*1+0x0]
    1aaf:	00 
    1ab0:	c1 e0 08             	shl    eax,0x8
    1ab3:	83 ec 08             	sub    esp,0x8
    1ab6:	8d 84 03 a4 07 00 00 	lea    eax,[ebx+eax*1+0x7a4]
    1abd:	57                   	push   edi
    1abe:	50                   	push   eax
    1abf:	e8 fc ff ff ff       	call   1ac0 <terminal_on_key+0x2d0>
    1ac4:	83 c4 10             	add    esp,0x10
    1ac7:	85 c0                	test   eax,eax
    1ac9:	0f 84 3c fe ff ff    	je     190b <terminal_on_key+0x11b>
    1acf:	8b 83 a4 18 00 00    	mov    eax,DWORD PTR [ebx+0x18a4]
    1ad5:	83 f8 0f             	cmp    eax,0xf
    1ad8:	0f 8e 0d fe ff ff    	jle    18eb <terminal_on_key+0xfb>
    1ade:	8d 93 a4 08 00 00    	lea    edx,[ebx+0x8a4]
    1ae4:	8d 74 26 00          	lea    esi,[esi+eiz*1+0x0]
    1ae8:	2e 8d b4 26 00 00 00 	lea    esi,cs:[esi+eiz*1+0x0]
    1aef:	00 
    1af0:	83 ec 04             	sub    esp,0x4
    1af3:	89 d0                	mov    eax,edx
    1af5:	81 c2 00 01 00 00    	add    edx,0x100
    1afb:	68 00 01 00 00       	push   0x100
    1b00:	52                   	push   edx
    1b01:	89 54 24 18          	mov    DWORD PTR [esp+0x18],edx
    1b05:	50                   	push   eax
    1b06:	e8 fc ff ff ff       	call   1b07 <terminal_on_key+0x317>
    1b0b:	8b 54 24 1c          	mov    edx,DWORD PTR [esp+0x1c]
    1b0f:	8d 83 a4 17 00 00    	lea    eax,[ebx+0x17a4]
    1b15:	83 c4 10             	add    esp,0x10
    1b18:	39 d0                	cmp    eax,edx
    1b1a:	75 d4                	jne    1af0 <terminal_on_key+0x300>
    1b1c:	b8 a4 17 00 00       	mov    eax,0x17a4
    1b21:	ba 10 00 00 00       	mov    edx,0x10
    1b26:	e9 cb fd ff ff       	jmp    18f6 <terminal_on_key+0x106>
