
calculator.o:     file format elf32-i386


Disassembly of section .text:

00000000 <process_key>:
   0:	55                   	push   ebp
   1:	57                   	push   edi
   2:	56                   	push   esi
   3:	89 d6                	mov    esi,edx
   5:	53                   	push   ebx
   6:	89 c3                	mov    ebx,eax
   8:	83 ec 2c             	sub    esp,0x2c
   b:	80 fa 39             	cmp    dl,0x39
   e:	0f 8f f4 00 00 00    	jg     108 <process_key+0x108>
  14:	80 fa 2f             	cmp    dl,0x2f
  17:	0f 8f 53 01 00 00    	jg     170 <process_key+0x170>
  1d:	80 fa 0a             	cmp    dl,0xa
  20:	0f 84 0a 02 00 00    	je     230 <process_key+0x230>
  26:	0f 8e 24 01 00 00    	jle    150 <process_key+0x150>
  2c:	8d 42 d6             	lea    eax,[edx-0x2a]
  2f:	3c 05                	cmp    al,0x5
  31:	0f 87 0d 01 00 00    	ja     144 <process_key+0x144>
  37:	ba 2b 00 00 00       	mov    edx,0x2b
  3c:	0f a3 c2             	bt     edx,eax
  3f:	0f 83 ff 00 00 00    	jae    144 <process_key+0x144>
  45:	0f be 0b             	movsx  ecx,BYTE PTR [ebx]
  48:	31 c0                	xor    eax,eax
  4a:	bd 01 00 00 00       	mov    ebp,0x1
  4f:	80 f9 2d             	cmp    cl,0x2d
  52:	75 0e                	jne    62 <process_key+0x62>
  54:	0f be 4b 01          	movsx  ecx,BYTE PTR [ebx+0x1]
  58:	b8 01 00 00 00       	mov    eax,0x1
  5d:	bd ff ff ff ff       	mov    ebp,0xffffffff
  62:	84 c9                	test   cl,cl
  64:	0f 84 de 02 00 00    	je     348 <process_key+0x348>
  6a:	8d 7c 03 01          	lea    edi,[ebx+eax*1+0x1]
  6e:	31 c0                	xor    eax,eax
  70:	2e 8d b4 26 00 00 00 	lea    esi,cs:[esi+eiz*1+0x0]
  77:	00 
  78:	2e 8d b4 26 00 00 00 	lea    esi,cs:[esi+eiz*1+0x0]
  7f:	00 
  80:	8d 51 d0             	lea    edx,[ecx-0x30]
  83:	80 fa 09             	cmp    dl,0x9
  86:	77 07                	ja     8f <process_key+0x8f>
  88:	8d 04 80             	lea    eax,[eax+eax*4]
  8b:	8d 44 41 d0          	lea    eax,[ecx+eax*2-0x30]
  8f:	0f be 0f             	movsx  ecx,BYTE PTR [edi]
  92:	83 c7 01             	add    edi,0x1
  95:	84 c9                	test   cl,cl
  97:	75 e7                	jne    80 <process_key+0x80>
  99:	89 e9                	mov    ecx,ebp
  9b:	0f af c8             	imul   ecx,eax
  9e:	0f b6 53 28          	movzx  edx,BYTE PTR [ebx+0x28]
  a2:	84 d2                	test   dl,dl
  a4:	74 23                	je     c9 <process_key+0xc9>
  a6:	8b 43 24             	mov    eax,DWORD PTR [ebx+0x24]
  a9:	80 fa 2d             	cmp    dl,0x2d
  ac:	0f 84 ce 02 00 00    	je     380 <process_key+0x380>
  b2:	0f 8f 70 02 00 00    	jg     328 <process_key+0x328>
  b8:	80 fa 2a             	cmp    dl,0x2a
  bb:	0f 84 df 02 00 00    	je     3a0 <process_key+0x3a0>
  c1:	01 c8                	add    eax,ecx
  c3:	80 fa 2b             	cmp    dl,0x2b
  c6:	0f 44 c8             	cmove  ecx,eax
  c9:	83 ec 04             	sub    esp,0x4
  cc:	89 f0                	mov    eax,esi
  ce:	89 4b 24             	mov    DWORD PTR [ebx+0x24],ecx
  d1:	88 43 28             	mov    BYTE PTR [ebx+0x28],al
  d4:	c6 43 29 01          	mov    BYTE PTR [ebx+0x29],0x1
  d8:	6a 0a                	push   0xa
  da:	8d 74 24 08          	lea    esi,[esp+0x8]
  de:	56                   	push   esi
  df:	51                   	push   ecx
  e0:	e8 fc ff ff ff       	call   e1 <process_key+0xe1>
  e5:	59                   	pop    ecx
  e6:	5f                   	pop    edi
  e7:	56                   	push   esi
  e8:	53                   	push   ebx
  e9:	e8 fc ff ff ff       	call   ea <process_key+0xea>
  ee:	89 1c 24             	mov    DWORD PTR [esp],ebx
  f1:	e8 fc ff ff ff       	call   f2 <process_key+0xf2>
  f6:	89 f4                	mov    esp,esi
  f8:	89 43 20             	mov    DWORD PTR [ebx+0x20],eax
  fb:	83 c4 2c             	add    esp,0x2c
  fe:	5b                   	pop    ebx
  ff:	5e                   	pop    esi
 100:	5f                   	pop    edi
 101:	5d                   	pop    ebp
 102:	c3                   	ret
 103:	2e 8d 74 26 00       	lea    esi,cs:[esi+eiz*1+0x0]
 108:	80 fa 4e             	cmp    dl,0x4e
 10b:	0f 84 8f 00 00 00    	je     1a0 <process_key+0x1a0>
 111:	0f 8f 81 00 00 00    	jg     198 <process_key+0x198>
 117:	80 fa 3d             	cmp    dl,0x3d
 11a:	0f 84 10 01 00 00    	je     230 <process_key+0x230>
 120:	80 fa 43             	cmp    dl,0x43
 123:	75 1f                	jne    144 <process_key+0x144>
 125:	b9 30 00 00 00       	mov    ecx,0x30
 12a:	be 00 01 00 00       	mov    esi,0x100
 12f:	c7 43 20 01 00 00 00 	mov    DWORD PTR [ebx+0x20],0x1
 136:	66 89 0b             	mov    WORD PTR [ebx],cx
 139:	c7 43 24 00 00 00 00 	mov    DWORD PTR [ebx+0x24],0x0
 140:	66 89 73 28          	mov    WORD PTR [ebx+0x28],si
 144:	83 c4 2c             	add    esp,0x2c
 147:	5b                   	pop    ebx
 148:	5e                   	pop    esi
 149:	5f                   	pop    edi
 14a:	5d                   	pop    ebp
 14b:	c3                   	ret
 14c:	8d 74 26 00          	lea    esi,[esi+eiz*1+0x0]
 150:	80 fa 08             	cmp    dl,0x8
 153:	75 ef                	jne    144 <process_key+0x144>
 155:	8b 43 20             	mov    eax,DWORD PTR [ebx+0x20]
 158:	83 f8 01             	cmp    eax,0x1
 15b:	0f 8e 9f 01 00 00    	jle    300 <process_key+0x300>
 161:	8d 50 ff             	lea    edx,[eax-0x1]
 164:	89 53 20             	mov    DWORD PTR [ebx+0x20],edx
 167:	c6 44 03 ff 00       	mov    BYTE PTR [ebx+eax*1-0x1],0x0
 16c:	eb d6                	jmp    144 <process_key+0x144>
 16e:	66 90                	xchg   ax,ax
 170:	0f b7 05 00 00 00 00 	movzx  eax,WORD PTR ds:0x0
 177:	88 d0                	mov    al,dl
 179:	80 7b 29 00          	cmp    BYTE PTR [ebx+0x29],0x0
 17d:	0f 84 5d 01 00 00    	je     2e0 <process_key+0x2e0>
 183:	66 89 03             	mov    WORD PTR [ebx],ax
 186:	c7 43 20 01 00 00 00 	mov    DWORD PTR [ebx+0x20],0x1
 18d:	c6 43 29 00          	mov    BYTE PTR [ebx+0x29],0x0
 191:	eb b1                	jmp    144 <process_key+0x144>
 193:	2e 8d 74 26 00       	lea    esi,cs:[esi+eiz*1+0x0]
 198:	80 fa 63             	cmp    dl,0x63
 19b:	74 88                	je     125 <process_key+0x125>
 19d:	eb a5                	jmp    144 <process_key+0x144>
 19f:	90                   	nop
 1a0:	0f be 03             	movsx  eax,BYTE PTR [ebx]
 1a3:	31 d2                	xor    edx,edx
 1a5:	bf 01 00 00 00       	mov    edi,0x1
 1aa:	3c 2d                	cmp    al,0x2d
 1ac:	75 0e                	jne    1bc <process_key+0x1bc>
 1ae:	0f be 43 01          	movsx  eax,BYTE PTR [ebx+0x1]
 1b2:	ba 01 00 00 00       	mov    edx,0x1
 1b7:	bf ff ff ff ff       	mov    edi,0xffffffff
 1bc:	84 c0                	test   al,al
 1be:	0f 84 9c 01 00 00    	je     360 <process_key+0x360>
 1c4:	8d 74 13 01          	lea    esi,[ebx+edx*1+0x1]
 1c8:	31 c9                	xor    ecx,ecx
 1ca:	8d b6 00 00 00 00    	lea    esi,[esi+0x0]
 1d0:	2e 8d b4 26 00 00 00 	lea    esi,cs:[esi+eiz*1+0x0]
 1d7:	00 
 1d8:	2e 8d b4 26 00 00 00 	lea    esi,cs:[esi+eiz*1+0x0]
 1df:	00 
 1e0:	8d 50 d0             	lea    edx,[eax-0x30]
 1e3:	80 fa 09             	cmp    dl,0x9
 1e6:	77 07                	ja     1ef <process_key+0x1ef>
 1e8:	8d 14 89             	lea    edx,[ecx+ecx*4]
 1eb:	8d 4c 50 d0          	lea    ecx,[eax+edx*2-0x30]
 1ef:	0f be 06             	movsx  eax,BYTE PTR [esi]
 1f2:	83 c6 01             	add    esi,0x1
 1f5:	84 c0                	test   al,al
 1f7:	75 e7                	jne    1e0 <process_key+0x1e0>
 1f9:	89 f8                	mov    eax,edi
 1fb:	0f af c1             	imul   eax,ecx
 1fe:	f7 d8                	neg    eax
 200:	83 ec 04             	sub    esp,0x4
 203:	6a 0a                	push   0xa
 205:	8d 74 24 08          	lea    esi,[esp+0x8]
 209:	56                   	push   esi
 20a:	50                   	push   eax
 20b:	e8 fc ff ff ff       	call   20c <process_key+0x20c>
 210:	58                   	pop    eax
 211:	5a                   	pop    edx
 212:	56                   	push   esi
 213:	53                   	push   ebx
 214:	e8 fc ff ff ff       	call   215 <process_key+0x215>
 219:	89 1c 24             	mov    DWORD PTR [esp],ebx
 21c:	e8 fc ff ff ff       	call   21d <process_key+0x21d>
 221:	89 f4                	mov    esp,esi
 223:	89 43 20             	mov    DWORD PTR [ebx+0x20],eax
 226:	83 c4 2c             	add    esp,0x2c
 229:	5b                   	pop    ebx
 22a:	5e                   	pop    esi
 22b:	5f                   	pop    edi
 22c:	5d                   	pop    ebp
 22d:	c3                   	ret
 22e:	66 90                	xchg   ax,ax
 230:	0f be 13             	movsx  edx,BYTE PTR [ebx]
 233:	31 c0                	xor    eax,eax
 235:	bf 01 00 00 00       	mov    edi,0x1
 23a:	80 fa 2d             	cmp    dl,0x2d
 23d:	75 0e                	jne    24d <process_key+0x24d>
 23f:	0f be 53 01          	movsx  edx,BYTE PTR [ebx+0x1]
 243:	b8 01 00 00 00       	mov    eax,0x1
 248:	bf ff ff ff ff       	mov    edi,0xffffffff
 24d:	84 d2                	test   dl,dl
 24f:	0f 84 fb 00 00 00    	je     350 <process_key+0x350>
 255:	8d 74 03 01          	lea    esi,[ebx+eax*1+0x1]
 259:	31 c0                	xor    eax,eax
 25b:	2e 8d 74 26 00       	lea    esi,cs:[esi+eiz*1+0x0]
 260:	8d 4a d0             	lea    ecx,[edx-0x30]
 263:	80 f9 09             	cmp    cl,0x9
 266:	77 07                	ja     26f <process_key+0x26f>
 268:	8d 04 80             	lea    eax,[eax+eax*4]
 26b:	8d 44 42 d0          	lea    eax,[edx+eax*2-0x30]
 26f:	0f be 16             	movsx  edx,BYTE PTR [esi]
 272:	83 c6 01             	add    esi,0x1
 275:	84 d2                	test   dl,dl
 277:	75 e7                	jne    260 <process_key+0x260>
 279:	0f af f8             	imul   edi,eax
 27c:	0f b6 53 28          	movzx  edx,BYTE PTR [ebx+0x28]
 280:	84 d2                	test   dl,dl
 282:	74 1f                	je     2a3 <process_key+0x2a3>
 284:	8b 43 24             	mov    eax,DWORD PTR [ebx+0x24]
 287:	80 fa 2d             	cmp    dl,0x2d
 28a:	0f 84 00 01 00 00    	je     390 <process_key+0x390>
 290:	7f 7e                	jg     310 <process_key+0x310>
 292:	80 fa 2a             	cmp    dl,0x2a
 295:	0f 84 d5 00 00 00    	je     370 <process_key+0x370>
 29b:	01 f8                	add    eax,edi
 29d:	80 fa 2b             	cmp    dl,0x2b
 2a0:	0f 44 f8             	cmove  edi,eax
 2a3:	83 ec 04             	sub    esp,0x4
 2a6:	bd 00 01 00 00       	mov    ebp,0x100
 2ab:	89 7b 24             	mov    DWORD PTR [ebx+0x24],edi
 2ae:	66 89 6b 28          	mov    WORD PTR [ebx+0x28],bp
 2b2:	6a 0a                	push   0xa
 2b4:	8d 74 24 08          	lea    esi,[esp+0x8]
 2b8:	56                   	push   esi
 2b9:	57                   	push   edi
 2ba:	e8 fc ff ff ff       	call   2bb <process_key+0x2bb>
 2bf:	58                   	pop    eax
 2c0:	5a                   	pop    edx
 2c1:	56                   	push   esi
 2c2:	53                   	push   ebx
 2c3:	e8 fc ff ff ff       	call   2c4 <process_key+0x2c4>
 2c8:	89 1c 24             	mov    DWORD PTR [esp],ebx
 2cb:	e8 fc ff ff ff       	call   2cc <process_key+0x2cc>
 2d0:	89 f4                	mov    esp,esi
 2d2:	89 43 20             	mov    DWORD PTR [ebx+0x20],eax
 2d5:	83 c4 2c             	add    esp,0x2c
 2d8:	5b                   	pop    ebx
 2d9:	5e                   	pop    esi
 2da:	5f                   	pop    edi
 2db:	5d                   	pop    ebp
 2dc:	c3                   	ret
 2dd:	8d 76 00             	lea    esi,[esi+0x0]
 2e0:	8b 53 20             	mov    edx,DWORD PTR [ebx+0x20]
 2e3:	83 fa 0b             	cmp    edx,0xb
 2e6:	0f 8f 58 fe ff ff    	jg     144 <process_key+0x144>
 2ec:	8d 4a 01             	lea    ecx,[edx+0x1]
 2ef:	89 4b 20             	mov    DWORD PTR [ebx+0x20],ecx
 2f2:	66 89 04 13          	mov    WORD PTR [ebx+edx*1],ax
 2f6:	e9 49 fe ff ff       	jmp    144 <process_key+0x144>
 2fb:	2e 8d 74 26 00       	lea    esi,cs:[esi+eiz*1+0x0]
 300:	c6 03 30             	mov    BYTE PTR [ebx],0x30
 303:	c7 43 20 01 00 00 00 	mov    DWORD PTR [ebx+0x20],0x1
 30a:	e9 35 fe ff ff       	jmp    144 <process_key+0x144>
 30f:	90                   	nop
 310:	80 fa 2f             	cmp    dl,0x2f
 313:	75 8e                	jne    2a3 <process_key+0x2a3>
 315:	85 ff                	test   edi,edi
 317:	74 8a                	je     2a3 <process_key+0x2a3>
 319:	99                   	cdq
 31a:	f7 ff                	idiv   edi
 31c:	89 c7                	mov    edi,eax
 31e:	e9 80 ff ff ff       	jmp    2a3 <process_key+0x2a3>
 323:	2e 8d 74 26 00       	lea    esi,cs:[esi+eiz*1+0x0]
 328:	80 fa 2f             	cmp    dl,0x2f
 32b:	0f 85 98 fd ff ff    	jne    c9 <process_key+0xc9>
 331:	85 c9                	test   ecx,ecx
 333:	0f 84 90 fd ff ff    	je     c9 <process_key+0xc9>
 339:	99                   	cdq
 33a:	f7 f9                	idiv   ecx
 33c:	89 c1                	mov    ecx,eax
 33e:	e9 86 fd ff ff       	jmp    c9 <process_key+0xc9>
 343:	2e 8d 74 26 00       	lea    esi,cs:[esi+eiz*1+0x0]
 348:	31 c9                	xor    ecx,ecx
 34a:	e9 4f fd ff ff       	jmp    9e <process_key+0x9e>
 34f:	90                   	nop
 350:	31 ff                	xor    edi,edi
 352:	e9 25 ff ff ff       	jmp    27c <process_key+0x27c>
 357:	90                   	nop
 358:	2e 8d b4 26 00 00 00 	lea    esi,cs:[esi+eiz*1+0x0]
 35f:	00 
 360:	31 c0                	xor    eax,eax
 362:	e9 99 fe ff ff       	jmp    200 <process_key+0x200>
 367:	90                   	nop
 368:	2e 8d b4 26 00 00 00 	lea    esi,cs:[esi+eiz*1+0x0]
 36f:	00 
 370:	0f af f8             	imul   edi,eax
 373:	e9 2b ff ff ff       	jmp    2a3 <process_key+0x2a3>
 378:	2e 8d b4 26 00 00 00 	lea    esi,cs:[esi+eiz*1+0x0]
 37f:	00 
 380:	29 c8                	sub    eax,ecx
 382:	89 c1                	mov    ecx,eax
 384:	e9 40 fd ff ff       	jmp    c9 <process_key+0xc9>
 389:	8d b4 26 00 00 00 00 	lea    esi,[esi+eiz*1+0x0]
 390:	29 f8                	sub    eax,edi
 392:	89 c7                	mov    edi,eax
 394:	e9 0a ff ff ff       	jmp    2a3 <process_key+0x2a3>
 399:	8d b4 26 00 00 00 00 	lea    esi,[esi+eiz*1+0x0]
 3a0:	0f af c8             	imul   ecx,eax
 3a3:	e9 21 fd ff ff       	jmp    c9 <process_key+0xc9>
 3a8:	2e 8d b4 26 00 00 00 	lea    esi,cs:[esi+eiz*1+0x0]
 3af:	00 

000003b0 <calc_create>:
 3b0:	56                   	push   esi
 3b1:	31 f6                	xor    esi,esi
 3b3:	53                   	push   ebx
 3b4:	83 ec 04             	sub    esp,0x4
 3b7:	a1 00 00 00 00       	mov    eax,ds:0x0
 3bc:	83 f8 03             	cmp    eax,0x3
 3bf:	7f 3a                	jg     3fb <calc_create+0x4b>
 3c1:	6b d8 2c             	imul   ebx,eax,0x2c
 3c4:	83 ec 04             	sub    esp,0x4
 3c7:	8d 50 01             	lea    edx,[eax+0x1]
 3ca:	6a 2c                	push   0x2c
 3cc:	6a 00                	push   0x0
 3ce:	8d b3 20 00 00 00    	lea    esi,[ebx+0x20]
 3d4:	89 15 00 00 00 00    	mov    DWORD PTR ds:0x0,edx
 3da:	56                   	push   esi
 3db:	e8 fc ff ff ff       	call   3dc <calc_create+0x2c>
 3e0:	c6 83 20 00 00 00 30 	mov    BYTE PTR [ebx+0x20],0x30
 3e7:	83 c4 10             	add    esp,0x10
 3ea:	c7 83 40 00 00 00 01 	mov    DWORD PTR [ebx+0x40],0x1
 3f1:	00 00 00 
 3f4:	c6 83 49 00 00 00 01 	mov    BYTE PTR [ebx+0x49],0x1
 3fb:	83 c4 04             	add    esp,0x4
 3fe:	89 f0                	mov    eax,esi
 400:	5b                   	pop    ebx
 401:	5e                   	pop    esi
 402:	c3                   	ret
 403:	2e 8d 74 26 00       	lea    esi,cs:[esi+eiz*1+0x0]
 408:	2e 8d b4 26 00 00 00 	lea    esi,cs:[esi+eiz*1+0x0]
 40f:	00 

00000410 <calc_draw>:
 410:	55                   	push   ebp
 411:	57                   	push   edi
 412:	56                   	push   esi
 413:	53                   	push   ebx
 414:	83 ec 3c             	sub    esp,0x3c
 417:	8b 44 24 50          	mov    eax,DWORD PTR [esp+0x50]
 41b:	8b 58 68             	mov    ebx,DWORD PTR [eax+0x68]
 41e:	85 db                	test   ebx,ebx
 420:	0f 84 5a 01 00 00    	je     580 <calc_draw+0x170>
 426:	8b 38                	mov    edi,DWORD PTR [eax]
 428:	8b 68 04             	mov    ebp,DWORD PTR [eax+0x4]
 42b:	83 ec 08             	sub    esp,0x8
 42e:	68 44 32 31 00       	push   0x313244
 433:	8d 45 24             	lea    eax,[ebp+0x24]
 436:	8d 77 0c             	lea    esi,[edi+0xc]
 439:	6a 06                	push   0x6
 43b:	6a 28                	push   0x28
 43d:	68 d4 00 00 00       	push   0xd4
 442:	50                   	push   eax
 443:	56                   	push   esi
 444:	e8 fc ff ff ff       	call   445 <calc_draw+0x35>
 449:	83 c4 20             	add    esp,0x20
 44c:	8d 55 30             	lea    edx,[ebp+0x30]
 44f:	89 f9                	mov    ecx,edi
 451:	68 f4 d6 cd 00       	push   0xcdd6f4
 456:	53                   	push   ebx
 457:	52                   	push   edx
 458:	8b 43 20             	mov    eax,DWORD PTR [ebx+0x20]
 45b:	c1 e0 03             	shl    eax,0x3
 45e:	29 c1                	sub    ecx,eax
 460:	89 54 24 18          	mov    DWORD PTR [esp+0x18],edx
 464:	8d 81 d8 00 00 00    	lea    eax,[ecx+0xd8]
 46a:	50                   	push   eax
 46b:	e8 fc ff ff ff       	call   46c <calc_draw+0x5c>
 470:	0f b6 43 28          	movzx  eax,BYTE PTR [ebx+0x28]
 474:	83 c4 10             	add    esp,0x10
 477:	8b 54 24 0c          	mov    edx,DWORD PTR [esp+0xc]
 47b:	84 c0                	test   al,al
 47d:	0f 85 0d 01 00 00    	jne    590 <calc_draw+0x180>
 483:	89 74 24 1c          	mov    DWORD PTR [esp+0x1c],esi
 487:	8d 4d 54             	lea    ecx,[ebp+0x54]
 48a:	b8 43 00 00 00       	mov    eax,0x43
 48f:	31 ed                	xor    ebp,ebp
 491:	89 ca                	mov    edx,ecx
 493:	31 c9                	xor    ecx,ecx
 495:	8d 7a 0a             	lea    edi,[edx+0xa]
 498:	89 4c 24 14          	mov    DWORD PTR [esp+0x14],ecx
 49c:	8b 74 24 1c          	mov    esi,DWORD PTR [esp+0x1c]
 4a0:	89 e9                	mov    ecx,ebp
 4a2:	89 7c 24 18          	mov    DWORD PTR [esp+0x18],edi
 4a6:	31 ed                	xor    ebp,ebp
 4a8:	89 54 24 10          	mov    DWORD PTR [esp+0x10],edx
 4ac:	3c 20                	cmp    al,0x20
 4ae:	74 6c                	je     51c <calc_draw+0x10c>
 4b0:	8b bc a9 00 00 00 00 	mov    edi,DWORD PTR [ecx+ebp*4+0x0]
 4b7:	83 fd 03             	cmp    ebp,0x3
 4ba:	0f 84 85 00 00 00    	je     545 <calc_draw+0x135>
 4c0:	83 7c 24 14 01       	cmp    DWORD PTR [esp+0x14],0x1
 4c5:	bb f4 d6 cd 00       	mov    ebx,0xcdd6f4
 4ca:	19 c0                	sbb    eax,eax
 4cc:	25 2c 29 27 00       	and    eax,0x27292c
 4d1:	05 44 32 31 00       	add    eax,0x313244
 4d6:	89 4c 24 0c          	mov    DWORD PTR [esp+0xc],ecx
 4da:	83 ec 08             	sub    esp,0x8
 4dd:	50                   	push   eax
 4de:	6a 06                	push   0x6
 4e0:	6a 24                	push   0x24
 4e2:	6a 32                	push   0x32
 4e4:	ff 74 24 28          	push   DWORD PTR [esp+0x28]
 4e8:	56                   	push   esi
 4e9:	e8 fc ff ff ff       	call   4ea <calc_draw+0xda>
 4ee:	83 c4 14             	add    esp,0x14
 4f1:	57                   	push   edi
 4f2:	e8 fc ff ff ff       	call   4f3 <calc_draw+0xe3>
 4f7:	53                   	push   ebx
 4f8:	8d 1c c5 00 00 00 00 	lea    ebx,[eax*8+0x0]
 4ff:	b8 32 00 00 00       	mov    eax,0x32
 504:	57                   	push   edi
 505:	29 d8                	sub    eax,ebx
 507:	ff 74 24 30          	push   DWORD PTR [esp+0x30]
 50b:	d1 f8                	sar    eax,1
 50d:	01 f0                	add    eax,esi
 50f:	50                   	push   eax
 510:	e8 fc ff ff ff       	call   511 <calc_draw+0x101>
 515:	8b 4c 24 2c          	mov    ecx,DWORD PTR [esp+0x2c]
 519:	83 c4 20             	add    esp,0x20
 51c:	83 c5 01             	add    ebp,0x1
 51f:	83 fd 04             	cmp    ebp,0x4
 522:	74 34                	je     558 <calc_draw+0x148>
 524:	8b 84 a9 00 00 00 00 	mov    eax,DWORD PTR [ecx+ebp*4+0x0]
 52b:	83 c6 36             	add    esi,0x36
 52e:	0f b6 00             	movzx  eax,BYTE PTR [eax]
 531:	3c 20                	cmp    al,0x20
 533:	74 e7                	je     51c <calc_draw+0x10c>
 535:	8b bc a9 00 00 00 00 	mov    edi,DWORD PTR [ecx+ebp*4+0x0]
 53c:	83 fd 03             	cmp    ebp,0x3
 53f:	0f 85 7b ff ff ff    	jne    4c0 <calc_draw+0xb0>
 545:	bb ff ff ff 00       	mov    ebx,0xffffff
 54a:	b8 fa b4 89 00       	mov    eax,0x89b4fa
 54f:	eb 85                	jmp    4d6 <calc_draw+0xc6>
 551:	8d b4 26 00 00 00 00 	lea    esi,[esi+eiz*1+0x0]
 558:	89 cd                	mov    ebp,ecx
 55a:	8b 4c 24 14          	mov    ecx,DWORD PTR [esp+0x14]
 55e:	8b 54 24 10          	mov    edx,DWORD PTR [esp+0x10]
 562:	83 c1 01             	add    ecx,0x1
 565:	83 f9 05             	cmp    ecx,0x5
 568:	74 16                	je     580 <calc_draw+0x170>
 56a:	8b 85 10 00 00 00    	mov    eax,DWORD PTR [ebp+0x10]
 570:	83 c2 28             	add    edx,0x28
 573:	83 c5 10             	add    ebp,0x10
 576:	0f b6 00             	movzx  eax,BYTE PTR [eax]
 579:	e9 17 ff ff ff       	jmp    495 <calc_draw+0x85>
 57e:	66 90                	xchg   ax,ax
 580:	83 c4 3c             	add    esp,0x3c
 583:	5b                   	pop    ebx
 584:	5e                   	pop    esi
 585:	5f                   	pop    edi
 586:	5d                   	pop    ebp
 587:	c3                   	ret
 588:	2e 8d b4 26 00 00 00 	lea    esi,cs:[esi+eiz*1+0x0]
 58f:	00 
 590:	88 44 24 2e          	mov    BYTE PTR [esp+0x2e],al
 594:	83 c7 14             	add    edi,0x14
 597:	c6 44 24 2f 00       	mov    BYTE PTR [esp+0x2f],0x0
 59c:	68 86 70 6c 00       	push   0x6c7086
 5a1:	8d 44 24 32          	lea    eax,[esp+0x32]
 5a5:	50                   	push   eax
 5a6:	52                   	push   edx
 5a7:	57                   	push   edi
 5a8:	e8 fc ff ff ff       	call   5a9 <calc_draw+0x199>
 5ad:	83 c4 10             	add    esp,0x10
 5b0:	e9 ce fe ff ff       	jmp    483 <calc_draw+0x73>
 5b5:	8d 76 00             	lea    esi,[esi+0x0]
 5b8:	2e 8d b4 26 00 00 00 	lea    esi,cs:[esi+eiz*1+0x0]
 5bf:	00 

000005c0 <calc_on_key>:
 5c0:	8b 44 24 04          	mov    eax,DWORD PTR [esp+0x4]
 5c4:	8b 40 68             	mov    eax,DWORD PTR [eax+0x68]
 5c7:	85 c0                	test   eax,eax
 5c9:	74 0d                	je     5d8 <calc_on_key+0x18>
 5cb:	0f be 54 24 08       	movsx  edx,BYTE PTR [esp+0x8]
 5d0:	e9 2b fa ff ff       	jmp    0 <process_key>
 5d5:	8d 76 00             	lea    esi,[esi+0x0]
 5d8:	c3                   	ret
 5d9:	8d b4 26 00 00 00 00 	lea    esi,[esi+eiz*1+0x0]

000005e0 <calc_on_mouse>:
 5e0:	55                   	push   ebp
 5e1:	57                   	push   edi
 5e2:	56                   	push   esi
 5e3:	53                   	push   ebx
 5e4:	83 ec 1c             	sub    esp,0x1c
 5e7:	8b 44 24 38          	mov    eax,DWORD PTR [esp+0x38]
 5eb:	8b 5c 24 34          	mov    ebx,DWORD PTR [esp+0x34]
 5ef:	89 44 24 08          	mov    DWORD PTR [esp+0x8],eax
 5f3:	8b 44 24 30          	mov    eax,DWORD PTR [esp+0x30]
 5f7:	8b 78 68             	mov    edi,DWORD PTR [eax+0x68]
 5fa:	85 ff                	test   edi,edi
 5fc:	0f 84 c6 00 00 00    	je     6c8 <calc_on_mouse+0xe8>
 602:	80 7c 24 3c 01       	cmp    BYTE PTR [esp+0x3c],0x1
 607:	0f 85 bb 00 00 00    	jne    6c8 <calc_on_mouse+0xe8>
 60d:	89 7c 24 0c          	mov    DWORD PTR [esp+0xc],edi
 611:	31 f6                	xor    esi,esi
 613:	bd 38 00 00 00       	mov    ebp,0x38
 618:	b9 43 00 00 00       	mov    ecx,0x43
 61d:	39 6c 24 08          	cmp    DWORD PTR [esp+0x8],ebp
 621:	8d 3c b5 00 00 00 00 	lea    edi,[esi*4+0x0]
 628:	ba 3d 00 00 00       	mov    edx,0x3d
 62d:	0f 9d 44 24 07       	setge  BYTE PTR [esp+0x7]
 632:	31 c0                	xor    eax,eax
 634:	80 f9 20             	cmp    cl,0x20
 637:	74 17                	je     650 <calc_on_mouse+0x70>
 639:	8d 4a cf             	lea    ecx,[edx-0x31]
 63c:	39 cb                	cmp    ebx,ecx
 63e:	7c 10                	jl     650 <calc_on_mouse+0x70>
 640:	39 d3                	cmp    ebx,edx
 642:	7f 0c                	jg     650 <calc_on_mouse+0x70>
 644:	80 7c 24 07 00       	cmp    BYTE PTR [esp+0x7],0x0
 649:	75 55                	jne    6a0 <calc_on_mouse+0xc0>
 64b:	2e 8d 74 26 00       	lea    esi,cs:[esi+eiz*1+0x0]
 650:	83 c0 01             	add    eax,0x1
 653:	83 f8 04             	cmp    eax,0x4
 656:	74 28                	je     680 <calc_on_mouse+0xa0>
 658:	8b 8c 87 00 00 00 00 	mov    ecx,DWORD PTR [edi+eax*4+0x0]
 65f:	83 c2 36             	add    edx,0x36
 662:	0f b6 09             	movzx  ecx,BYTE PTR [ecx]
 665:	80 f9 20             	cmp    cl,0x20
 668:	75 cf                	jne    639 <calc_on_mouse+0x59>
 66a:	83 c0 01             	add    eax,0x1
 66d:	83 f8 04             	cmp    eax,0x4
 670:	75 e6                	jne    658 <calc_on_mouse+0x78>
 672:	8d b6 00 00 00 00    	lea    esi,[esi+0x0]
 678:	2e 8d b4 26 00 00 00 	lea    esi,cs:[esi+eiz*1+0x0]
 67f:	00 
 680:	83 c6 04             	add    esi,0x4
 683:	83 fe 14             	cmp    esi,0x14
 686:	74 40                	je     6c8 <calc_on_mouse+0xe8>
 688:	8b 04 b5 00 00 00 00 	mov    eax,DWORD PTR [esi*4+0x0]
 68f:	83 c5 28             	add    ebp,0x28
 692:	0f b6 08             	movzx  ecx,BYTE PTR [eax]
 695:	e9 83 ff ff ff       	jmp    61d <calc_on_mouse+0x3d>
 69a:	8d b6 00 00 00 00    	lea    esi,[esi+0x0]
 6a0:	8d 4d 23             	lea    ecx,[ebp+0x23]
 6a3:	39 4c 24 08          	cmp    DWORD PTR [esp+0x8],ecx
 6a7:	7f a7                	jg     650 <calc_on_mouse+0x70>
 6a9:	0f be 94 30 50 00 00 	movsx  edx,BYTE PTR [eax+esi*1+0x50]
 6b0:	00 
 6b1:	8b 44 24 0c          	mov    eax,DWORD PTR [esp+0xc]
 6b5:	83 c4 1c             	add    esp,0x1c
 6b8:	5b                   	pop    ebx
 6b9:	5e                   	pop    esi
 6ba:	5f                   	pop    edi
 6bb:	5d                   	pop    ebp
 6bc:	e9 3f f9 ff ff       	jmp    0 <process_key>
 6c1:	8d b4 26 00 00 00 00 	lea    esi,[esi+eiz*1+0x0]
 6c8:	83 c4 1c             	add    esp,0x1c
 6cb:	5b                   	pop    ebx
 6cc:	5e                   	pop    esi
 6cd:	5f                   	pop    edi
 6ce:	5d                   	pop    ebp
 6cf:	c3                   	ret
