
keyboard.o:     file format elf32-i386


Disassembly of section .text:

00000000 <kb_handler>:
   0:	e4 60                	in     al,0x60
   2:	3c e0                	cmp    al,0xe0
   4:	0f 84 b6 00 00 00    	je     c0 <kb_handler+0xc0>
   a:	80 3d 00 00 00 00 00 	cmp    BYTE PTR ds:0x0,0x0
  11:	0f 85 89 00 00 00    	jne    a0 <kb_handler+0xa0>
  17:	84 c0                	test   al,al
  19:	0f 88 e1 00 00 00    	js     100 <kb_handler+0x100>
  1f:	3c 2a                	cmp    al,0x2a
  21:	0f 84 a9 00 00 00    	je     d0 <kb_handler+0xd0>
  27:	3c 36                	cmp    al,0x36
  29:	0f 84 a1 00 00 00    	je     d0 <kb_handler+0xd0>
  2f:	0f b6 0d 01 00 00 00 	movzx  ecx,BYTE PTR ds:0x1
  36:	3c 3a                	cmp    al,0x3a
  38:	0f 84 e2 02 00 00    	je     320 <kb_handler+0x320>
  3e:	0f b6 c0             	movzx  eax,al
  41:	80 3d 02 00 00 00 00 	cmp    BYTE PTR ds:0x2,0x0
  48:	0f 84 ca 00 00 00    	je     118 <kb_handler+0x118>
  4e:	0f b6 90 40 00 00 00 	movzx  edx,BYTE PTR [eax+0x40]
  55:	84 c9                	test   cl,cl
  57:	0f 84 93 00 00 00    	je     f0 <kb_handler+0xf0>
  5d:	8d 42 9f             	lea    eax,[edx-0x61]
  60:	3c 19                	cmp    al,0x19
  62:	77 7c                	ja     e0 <kb_handler+0xe0>
  64:	83 ea 20             	sub    edx,0x20
  67:	a1 08 00 00 00       	mov    eax,ds:0x8
  6c:	8d 48 01             	lea    ecx,[eax+0x1]
  6f:	c1 f9 1f             	sar    ecx,0x1f
  72:	c1 e9 18             	shr    ecx,0x18
  75:	8d 44 08 01          	lea    eax,[eax+ecx*1+0x1]
  79:	0f b6 c0             	movzx  eax,al
  7c:	29 c8                	sub    eax,ecx
  7e:	8b 0d 04 00 00 00    	mov    ecx,DWORD PTR ds:0x4
  84:	39 c8                	cmp    eax,ecx
  86:	74 11                	je     99 <kb_handler+0x99>
  88:	8b 0d 08 00 00 00    	mov    ecx,DWORD PTR ds:0x8
  8e:	a3 08 00 00 00       	mov    ds:0x8,eax
  93:	88 91 20 00 00 00    	mov    BYTE PTR [ecx+0x20],dl
  99:	c3                   	ret
  9a:	8d b6 00 00 00 00    	lea    esi,[esi+0x0]
  a0:	c6 05 00 00 00 00 00 	mov    BYTE PTR ds:0x0,0x0
  a7:	84 c0                	test   al,al
  a9:	78 ee                	js     99 <kb_handler+0x99>
  ab:	83 e8 47             	sub    eax,0x47
  ae:	3c 0c                	cmp    al,0xc
  b0:	77 e7                	ja     99 <kb_handler+0x99>
  b2:	0f b6 c0             	movzx  eax,al
  b5:	ff 24 85 00 00 00 00 	jmp    DWORD PTR [eax*4+0x0]
  bc:	8d 74 26 00          	lea    esi,[esi+eiz*1+0x0]
  c0:	c6 05 00 00 00 00 01 	mov    BYTE PTR ds:0x0,0x1
  c7:	c3                   	ret
  c8:	2e 8d b4 26 00 00 00 	lea    esi,cs:[esi+eiz*1+0x0]
  cf:	00 
  d0:	c6 05 02 00 00 00 01 	mov    BYTE PTR ds:0x2,0x1
  d7:	c3                   	ret
  d8:	2e 8d b4 26 00 00 00 	lea    esi,cs:[esi+eiz*1+0x0]
  df:	00 
  e0:	8d 42 bf             	lea    eax,[edx-0x41]
  e3:	3c 19                	cmp    al,0x19
  e5:	77 09                	ja     f0 <kb_handler+0xf0>
  e7:	83 c2 20             	add    edx,0x20
  ea:	e9 78 ff ff ff       	jmp    67 <kb_handler+0x67>
  ef:	90                   	nop
  f0:	84 d2                	test   dl,dl
  f2:	0f 85 6f ff ff ff    	jne    67 <kb_handler+0x67>
  f8:	c3                   	ret
  f9:	8d b4 26 00 00 00 00 	lea    esi,[esi+eiz*1+0x0]
 100:	83 e0 7f             	and    eax,0x7f
 103:	3c 2a                	cmp    al,0x2a
 105:	74 04                	je     10b <kb_handler+0x10b>
 107:	3c 36                	cmp    al,0x36
 109:	75 8e                	jne    99 <kb_handler+0x99>
 10b:	c6 05 02 00 00 00 00 	mov    BYTE PTR ds:0x2,0x0
 112:	c3                   	ret
 113:	2e 8d 74 26 00       	lea    esi,cs:[esi+eiz*1+0x0]
 118:	0f b6 90 c0 00 00 00 	movzx  edx,BYTE PTR [eax+0xc0]
 11f:	e9 31 ff ff ff       	jmp    55 <kb_handler+0x55>
 124:	8d 74 26 00          	lea    esi,[esi+eiz*1+0x0]
 128:	a1 08 00 00 00       	mov    eax,ds:0x8
 12d:	83 c0 01             	add    eax,0x1
 130:	99                   	cdq
 131:	c1 ea 18             	shr    edx,0x18
 134:	01 d0                	add    eax,edx
 136:	0f b6 c0             	movzx  eax,al
 139:	29 d0                	sub    eax,edx
 13b:	8b 15 04 00 00 00    	mov    edx,DWORD PTR ds:0x4
 141:	39 d0                	cmp    eax,edx
 143:	0f 84 50 ff ff ff    	je     99 <kb_handler+0x99>
 149:	8b 15 08 00 00 00    	mov    edx,DWORD PTR ds:0x8
 14f:	a3 08 00 00 00       	mov    ds:0x8,eax
 154:	c6 82 20 00 00 00 f8 	mov    BYTE PTR [edx+0x20],0xf8
 15b:	c3                   	ret
 15c:	8d 74 26 00          	lea    esi,[esi+eiz*1+0x0]
 160:	a1 08 00 00 00       	mov    eax,ds:0x8
 165:	83 c0 01             	add    eax,0x1
 168:	99                   	cdq
 169:	c1 ea 18             	shr    edx,0x18
 16c:	01 d0                	add    eax,edx
 16e:	0f b6 c0             	movzx  eax,al
 171:	29 d0                	sub    eax,edx
 173:	8b 15 04 00 00 00    	mov    edx,DWORD PTR ds:0x4
 179:	39 d0                	cmp    eax,edx
 17b:	0f 84 18 ff ff ff    	je     99 <kb_handler+0x99>
 181:	8b 15 08 00 00 00    	mov    edx,DWORD PTR ds:0x8
 187:	a3 08 00 00 00       	mov    ds:0x8,eax
 18c:	c6 82 20 00 00 00 f6 	mov    BYTE PTR [edx+0x20],0xf6
 193:	c3                   	ret
 194:	8d 74 26 00          	lea    esi,[esi+eiz*1+0x0]
 198:	a1 08 00 00 00       	mov    eax,ds:0x8
 19d:	83 c0 01             	add    eax,0x1
 1a0:	99                   	cdq
 1a1:	c1 ea 18             	shr    edx,0x18
 1a4:	01 d0                	add    eax,edx
 1a6:	0f b6 c0             	movzx  eax,al
 1a9:	29 d0                	sub    eax,edx
 1ab:	8b 15 04 00 00 00    	mov    edx,DWORD PTR ds:0x4
 1b1:	39 d0                	cmp    eax,edx
 1b3:	0f 84 e0 fe ff ff    	je     99 <kb_handler+0x99>
 1b9:	8b 15 08 00 00 00    	mov    edx,DWORD PTR ds:0x8
 1bf:	a3 08 00 00 00       	mov    ds:0x8,eax
 1c4:	c6 82 20 00 00 00 fa 	mov    BYTE PTR [edx+0x20],0xfa
 1cb:	c3                   	ret
 1cc:	8d 74 26 00          	lea    esi,[esi+eiz*1+0x0]
 1d0:	a1 08 00 00 00       	mov    eax,ds:0x8
 1d5:	83 c0 01             	add    eax,0x1
 1d8:	99                   	cdq
 1d9:	c1 ea 18             	shr    edx,0x18
 1dc:	01 d0                	add    eax,edx
 1de:	0f b6 c0             	movzx  eax,al
 1e1:	29 d0                	sub    eax,edx
 1e3:	8b 15 04 00 00 00    	mov    edx,DWORD PTR ds:0x4
 1e9:	39 d0                	cmp    eax,edx
 1eb:	0f 84 a8 fe ff ff    	je     99 <kb_handler+0x99>
 1f1:	8b 15 08 00 00 00    	mov    edx,DWORD PTR ds:0x8
 1f7:	a3 08 00 00 00       	mov    ds:0x8,eax
 1fc:	c6 82 20 00 00 00 f7 	mov    BYTE PTR [edx+0x20],0xf7
 203:	c3                   	ret
 204:	8d 74 26 00          	lea    esi,[esi+eiz*1+0x0]
 208:	a1 08 00 00 00       	mov    eax,ds:0x8
 20d:	83 c0 01             	add    eax,0x1
 210:	99                   	cdq
 211:	c1 ea 18             	shr    edx,0x18
 214:	01 d0                	add    eax,edx
 216:	0f b6 c0             	movzx  eax,al
 219:	29 d0                	sub    eax,edx
 21b:	8b 15 04 00 00 00    	mov    edx,DWORD PTR ds:0x4
 221:	39 d0                	cmp    eax,edx
 223:	0f 84 70 fe ff ff    	je     99 <kb_handler+0x99>
 229:	8b 15 08 00 00 00    	mov    edx,DWORD PTR ds:0x8
 22f:	a3 08 00 00 00       	mov    ds:0x8,eax
 234:	c6 82 20 00 00 00 fe 	mov    BYTE PTR [edx+0x20],0xfe
 23b:	c3                   	ret
 23c:	8d 74 26 00          	lea    esi,[esi+eiz*1+0x0]
 240:	a1 08 00 00 00       	mov    eax,ds:0x8
 245:	83 c0 01             	add    eax,0x1
 248:	99                   	cdq
 249:	c1 ea 18             	shr    edx,0x18
 24c:	01 d0                	add    eax,edx
 24e:	0f b6 c0             	movzx  eax,al
 251:	29 d0                	sub    eax,edx
 253:	8b 15 04 00 00 00    	mov    edx,DWORD PTR ds:0x4
 259:	39 d0                	cmp    eax,edx
 25b:	0f 84 38 fe ff ff    	je     99 <kb_handler+0x99>
 261:	8b 15 08 00 00 00    	mov    edx,DWORD PTR ds:0x8
 267:	a3 08 00 00 00       	mov    ds:0x8,eax
 26c:	c6 82 20 00 00 00 fd 	mov    BYTE PTR [edx+0x20],0xfd
 273:	c3                   	ret
 274:	8d 74 26 00          	lea    esi,[esi+eiz*1+0x0]
 278:	a1 08 00 00 00       	mov    eax,ds:0x8
 27d:	83 c0 01             	add    eax,0x1
 280:	99                   	cdq
 281:	c1 ea 18             	shr    edx,0x18
 284:	01 d0                	add    eax,edx
 286:	0f b6 c0             	movzx  eax,al
 289:	29 d0                	sub    eax,edx
 28b:	8b 15 04 00 00 00    	mov    edx,DWORD PTR ds:0x4
 291:	39 d0                	cmp    eax,edx
 293:	0f 84 00 fe ff ff    	je     99 <kb_handler+0x99>
 299:	8b 15 08 00 00 00    	mov    edx,DWORD PTR ds:0x8
 29f:	a3 08 00 00 00       	mov    ds:0x8,eax
 2a4:	c6 82 20 00 00 00 f9 	mov    BYTE PTR [edx+0x20],0xf9
 2ab:	c3                   	ret
 2ac:	8d 74 26 00          	lea    esi,[esi+eiz*1+0x0]
 2b0:	a1 08 00 00 00       	mov    eax,ds:0x8
 2b5:	83 c0 01             	add    eax,0x1
 2b8:	99                   	cdq
 2b9:	c1 ea 18             	shr    edx,0x18
 2bc:	01 d0                	add    eax,edx
 2be:	0f b6 c0             	movzx  eax,al
 2c1:	29 d0                	sub    eax,edx
 2c3:	8b 15 04 00 00 00    	mov    edx,DWORD PTR ds:0x4
 2c9:	39 d0                	cmp    eax,edx
 2cb:	0f 84 c8 fd ff ff    	je     99 <kb_handler+0x99>
 2d1:	8b 15 08 00 00 00    	mov    edx,DWORD PTR ds:0x8
 2d7:	a3 08 00 00 00       	mov    ds:0x8,eax
 2dc:	c6 82 20 00 00 00 fb 	mov    BYTE PTR [edx+0x20],0xfb
 2e3:	c3                   	ret
 2e4:	8d 74 26 00          	lea    esi,[esi+eiz*1+0x0]
 2e8:	a1 08 00 00 00       	mov    eax,ds:0x8
 2ed:	83 c0 01             	add    eax,0x1
 2f0:	99                   	cdq
 2f1:	c1 ea 18             	shr    edx,0x18
 2f4:	01 d0                	add    eax,edx
 2f6:	0f b6 c0             	movzx  eax,al
 2f9:	29 d0                	sub    eax,edx
 2fb:	8b 15 04 00 00 00    	mov    edx,DWORD PTR ds:0x4
 301:	39 d0                	cmp    eax,edx
 303:	0f 84 90 fd ff ff    	je     99 <kb_handler+0x99>
 309:	8b 15 08 00 00 00    	mov    edx,DWORD PTR ds:0x8
 30f:	a3 08 00 00 00       	mov    ds:0x8,eax
 314:	c6 82 20 00 00 00 fc 	mov    BYTE PTR [edx+0x20],0xfc
 31b:	c3                   	ret
 31c:	8d 74 26 00          	lea    esi,[esi+eiz*1+0x0]
 320:	83 f1 01             	xor    ecx,0x1
 323:	88 0d 01 00 00 00    	mov    BYTE PTR ds:0x1,cl
 329:	c3                   	ret
 32a:	8d b6 00 00 00 00    	lea    esi,[esi+0x0]

00000330 <keyboard_init>:
 330:	83 ec 14             	sub    esp,0x14
 333:	68 00 00 00 00       	push   0x0
 338:	6a 21                	push   0x21
 33a:	e8 fc ff ff ff       	call   33b <keyboard_init+0xb>
 33f:	c7 04 24 01 00 00 00 	mov    DWORD PTR [esp],0x1
 346:	e8 fc ff ff ff       	call   347 <keyboard_init+0x17>
 34b:	83 c4 1c             	add    esp,0x1c
 34e:	c3                   	ret
 34f:	90                   	nop

00000350 <keyboard_has_char>:
 350:	8b 15 08 00 00 00    	mov    edx,DWORD PTR ds:0x8
 356:	a1 04 00 00 00       	mov    eax,ds:0x4
 35b:	39 c2                	cmp    edx,eax
 35d:	0f 95 c0             	setne  al
 360:	c3                   	ret
 361:	8d b4 26 00 00 00 00 	lea    esi,[esi+eiz*1+0x0]
 368:	2e 8d b4 26 00 00 00 	lea    esi,cs:[esi+eiz*1+0x0]
 36f:	00 

00000370 <keyboard_get_char>:
 370:	eb 07                	jmp    379 <keyboard_get_char+0x9>
 372:	8d b6 00 00 00 00    	lea    esi,[esi+0x0]
 378:	f4                   	hlt
 379:	8b 15 08 00 00 00    	mov    edx,DWORD PTR ds:0x8
 37f:	a1 04 00 00 00       	mov    eax,ds:0x4
 384:	39 c2                	cmp    edx,eax
 386:	74 f0                	je     378 <keyboard_get_char+0x8>
 388:	a1 04 00 00 00       	mov    eax,ds:0x4
 38d:	0f b6 88 20 00 00 00 	movzx  ecx,BYTE PTR [eax+0x20]
 394:	a1 04 00 00 00       	mov    eax,ds:0x4
 399:	83 c0 01             	add    eax,0x1
 39c:	99                   	cdq
 39d:	c1 ea 18             	shr    edx,0x18
 3a0:	01 d0                	add    eax,edx
 3a2:	0f b6 c0             	movzx  eax,al
 3a5:	29 d0                	sub    eax,edx
 3a7:	a3 04 00 00 00       	mov    ds:0x4,eax
 3ac:	89 c8                	mov    eax,ecx
 3ae:	c3                   	ret
