
settings.o:     file format elf32-i386


Disassembly of section .text:

00000000 <settings_create>:
   0:	a1 00 00 00 00       	mov    eax,ds:0x0
   5:	31 d2                	xor    edx,edx
   7:	83 f8 01             	cmp    eax,0x1
   a:	7f 1b                	jg     27 <settings_create+0x27>
   c:	c7 04 85 04 00 00 00 	mov    DWORD PTR [eax*4+0x4],0x0
  13:	00 00 00 00 
  17:	8d 50 01             	lea    edx,[eax+0x1]
  1a:	89 15 00 00 00 00    	mov    DWORD PTR ds:0x0,edx
  20:	8d 14 85 04 00 00 00 	lea    edx,[eax*4+0x4]
  27:	89 d0                	mov    eax,edx
  29:	c3                   	ret
  2a:	8d b6 00 00 00 00    	lea    esi,[esi+0x0]

00000030 <settings_draw>:
  30:	55                   	push   ebp
  31:	57                   	push   edi
  32:	56                   	push   esi
  33:	53                   	push   ebx
  34:	81 ec 8c 00 00 00    	sub    esp,0x8c
  3a:	8b ac 24 a0 00 00 00 	mov    ebp,DWORD PTR [esp+0xa0]
  41:	8b 45 68             	mov    eax,DWORD PTR [ebp+0x68]
  44:	89 44 24 0c          	mov    DWORD PTR [esp+0xc],eax
  48:	85 c0                	test   eax,eax
  4a:	0f 84 8a 03 00 00    	je     3da <settings_draw+0x3aa>
  50:	8b 7d 04             	mov    edi,DWORD PTR [ebp+0x4]
  53:	8b 75 00             	mov    esi,DWORD PTR [ebp+0x0]
  56:	68 f4 d6 cd 00       	push   0xcdd6f4
  5b:	68 00 00 00 00       	push   0x0
  60:	8d 5e 10             	lea    ebx,[esi+0x10]
  63:	8d 47 2c             	lea    eax,[edi+0x2c]
  66:	83 c6 1c             	add    esi,0x1c
  69:	50                   	push   eax
  6a:	53                   	push   ebx
  6b:	e8 fc ff ff ff       	call   6c <settings_draw+0x3c>
  70:	68 5a 47 45 00       	push   0x45475a
  75:	8b 45 08             	mov    eax,DWORD PTR [ebp+0x8]
  78:	83 e8 20             	sub    eax,0x20
  7b:	50                   	push   eax
  7c:	8d 47 48             	lea    eax,[edi+0x48]
  7f:	50                   	push   eax
  80:	53                   	push   ebx
  81:	e8 fc ff ff ff       	call   82 <settings_draw+0x52>
  86:	83 c4 20             	add    esp,0x20
  89:	8d 47 54             	lea    eax,[edi+0x54]
  8c:	68 fa b4 89 00       	push   0x89b4fa
  91:	68 10 00 00 00       	push   0x10
  96:	50                   	push   eax
  97:	53                   	push   ebx
  98:	e8 fc ff ff ff       	call   99 <settings_draw+0x69>
  9d:	8d 47 6a             	lea    eax,[edi+0x6a]
  a0:	89 74 24 18          	mov    DWORD PTR [esp+0x18],esi
  a4:	68 f4 d6 cd 00       	push   0xcdd6f4
  a9:	68 18 00 00 00       	push   0x18
  ae:	50                   	push   eax
  af:	56                   	push   esi
  b0:	e8 fc ff ff ff       	call   b1 <settings_draw+0x81>
  b5:	83 c4 20             	add    esp,0x20
  b8:	8d 47 7c             	lea    eax,[edi+0x7c]
  bb:	68 f4 d6 cd 00       	push   0xcdd6f4
  c0:	68 2d 00 00 00       	push   0x2d
  c5:	50                   	push   eax
  c6:	56                   	push   esi
  c7:	e8 fc ff ff ff       	call   c8 <settings_draw+0x98>
  cc:	8d 87 8e 00 00 00    	lea    eax,[edi+0x8e]
  d2:	68 c8 ad a6 00       	push   0xa6adc8
  d7:	68 41 00 00 00       	push   0x41
  dc:	50                   	push   eax
  dd:	56                   	push   esi
  de:	31 f6                	xor    esi,esi
  e0:	e8 fc ff ff ff       	call   e1 <settings_draw+0xb1>
  e5:	83 c4 20             	add    esp,0x20
  e8:	8d 87 aa 00 00 00    	lea    eax,[edi+0xaa]
  ee:	68 fa b4 89 00       	push   0x89b4fa
  f3:	68 5e 00 00 00       	push   0x5e
  f8:	50                   	push   eax
  f9:	53                   	push   ebx
  fa:	e8 fc ff ff ff       	call   fb <settings_draw+0xcb>
  ff:	83 c4 10             	add    esp,0x10
 102:	89 ac 24 a0 00 00 00 	mov    DWORD PTR [esp+0xa0],ebp
 109:	8d af c0 00 00 00    	lea    ebp,[edi+0xc0]
 10f:	89 7c 24 18          	mov    DWORD PTR [esp+0x18],edi
 113:	89 5c 24 1c          	mov    DWORD PTR [esp+0x1c],ebx
 117:	eb 43                	jmp    15c <settings_draw+0x12c>
 119:	8d b4 26 00 00 00 00 	lea    esi,[esi+eiz*1+0x0]
 120:	ff 34 f5 04 00 00 00 	push   DWORD PTR [esi*8+0x4]
 127:	6a 08                	push   0x8
 129:	52                   	push   edx
 12a:	50                   	push   eax
 12b:	e8 fc ff ff ff       	call   12c <settings_draw+0xfc>
 130:	83 c4 10             	add    esp,0x10
 133:	b8 c8 ad a6 00       	mov    eax,0xa6adc8
 138:	83 c7 05             	add    edi,0x5
 13b:	83 c3 18             	add    ebx,0x18
 13e:	50                   	push   eax
 13f:	ff 34 f5 00 00 00 00 	push   DWORD PTR [esi*8+0x0]
 146:	83 c6 01             	add    esi,0x1
 149:	57                   	push   edi
 14a:	53                   	push   ebx
 14b:	e8 fc ff ff ff       	call   14c <settings_draw+0x11c>
 150:	83 c4 10             	add    esp,0x10
 153:	83 fe 07             	cmp    esi,0x7
 156:	0f 84 84 00 00 00    	je     1e0 <settings_draw+0x1b0>
 15c:	b8 ab aa aa aa       	mov    eax,0xaaaaaaab
 161:	89 f3                	mov    ebx,esi
 163:	8b 4c 24 0c          	mov    ecx,DWORD PTR [esp+0xc]
 167:	f7 e6                	mul    esi
 169:	89 d0                	mov    eax,edx
 16b:	83 e2 fe             	and    edx,0xfffffffe
 16e:	d1 e8                	shr    eax,1
 170:	01 c2                	add    edx,eax
 172:	8d 04 c0             	lea    eax,[eax+eax*8]
 175:	29 d3                	sub    ebx,edx
 177:	8d 7c 85 00          	lea    edi,[ebp+eax*4+0x0]
 17b:	69 db 82 00 00 00    	imul   ebx,ebx,0x82
 181:	03 5c 24 08          	add    ebx,DWORD PTR [esp+0x8]
 185:	8d 57 0c             	lea    edx,[edi+0xc]
 188:	8d 43 0a             	lea    eax,[ebx+0xa]
 18b:	39 31                	cmp    DWORD PTR [ecx],esi
 18d:	75 91                	jne    120 <settings_draw+0xf0>
 18f:	89 44 24 14          	mov    DWORD PTR [esp+0x14],eax
 193:	8d 4f fe             	lea    ecx,[edi-0x2]
 196:	83 ec 08             	sub    esp,0x8
 199:	89 54 24 18          	mov    DWORD PTR [esp+0x18],edx
 19d:	68 5a 47 45 00       	push   0x45475a
 1a2:	6a 08                	push   0x8
 1a4:	6a 1e                	push   0x1e
 1a6:	6a 7c                	push   0x7c
 1a8:	51                   	push   ecx
 1a9:	8d 4b fc             	lea    ecx,[ebx-0x4]
 1ac:	51                   	push   ecx
 1ad:	e8 fc ff ff ff       	call   1ae <settings_draw+0x17e>
 1b2:	83 c4 20             	add    esp,0x20
 1b5:	ff 34 f5 04 00 00 00 	push   DWORD PTR [esi*8+0x4]
 1bc:	6a 08                	push   0x8
 1be:	8b 54 24 18          	mov    edx,DWORD PTR [esp+0x18]
 1c2:	52                   	push   edx
 1c3:	8b 44 24 20          	mov    eax,DWORD PTR [esp+0x20]
 1c7:	50                   	push   eax
 1c8:	e8 fc ff ff ff       	call   1c9 <settings_draw+0x199>
 1cd:	83 c4 10             	add    esp,0x10
 1d0:	b8 f4 d6 cd 00       	mov    eax,0xcdd6f4
 1d5:	e9 5e ff ff ff       	jmp    138 <settings_draw+0x108>
 1da:	8d b6 00 00 00 00    	lea    esi,[esi+0x0]
 1e0:	8b ac 24 a0 00 00 00 	mov    ebp,DWORD PTR [esp+0xa0]
 1e7:	8b 7c 24 18          	mov    edi,DWORD PTR [esp+0x18]
 1eb:	8b 5c 24 1c          	mov    ebx,DWORD PTR [esp+0x1c]
 1ef:	68 5a 47 45 00       	push   0x45475a
 1f4:	8b 45 08             	mov    eax,DWORD PTR [ebp+0x8]
 1f7:	83 e8 20             	sub    eax,0x20
 1fa:	50                   	push   eax
 1fb:	8d 87 34 01 00 00    	lea    eax,[edi+0x134]
 201:	50                   	push   eax
 202:	53                   	push   ebx
 203:	e8 fc ff ff ff       	call   204 <settings_draw+0x1d4>
 208:	8d 87 40 01 00 00    	lea    eax,[edi+0x140]
 20e:	68 fa b4 89 00       	push   0x89b4fa
 213:	68 64 00 00 00       	push   0x64
 218:	50                   	push   eax
 219:	53                   	push   ebx
 21a:	e8 fc ff ff ff       	call   21b <settings_draw+0x1eb>
 21f:	83 c4 20             	add    esp,0x20
 222:	8d 87 56 01 00 00    	lea    eax,[edi+0x156]
 228:	68 f4 d6 cd 00       	push   0xcdd6f4
 22d:	68 6a 00 00 00       	push   0x6a
 232:	50                   	push   eax
 233:	8b 74 24 14          	mov    esi,DWORD PTR [esp+0x14]
 237:	56                   	push   esi
 238:	e8 fc ff ff ff       	call   239 <settings_draw+0x209>
 23d:	8d 87 68 01 00 00    	lea    eax,[edi+0x168]
 243:	68 f4 d6 cd 00       	push   0xcdd6f4
 248:	68 76 00 00 00       	push   0x76
 24d:	50                   	push   eax
 24e:	56                   	push   esi
 24f:	e8 fc ff ff ff       	call   250 <settings_draw+0x220>
 254:	c7 44 24 70 55 73 65 	mov    DWORD PTR [esp+0x70],0x72657355
 25b:	72 
 25c:	c7 44 24 74 3a 20 00 	mov    DWORD PTR [esp+0x74],0x203a
 263:	00 
 264:	c7 44 24 78 00 00 00 	mov    DWORD PTR [esp+0x78],0x0
 26b:	00 
 26c:	c7 44 24 7c 00 00 00 	mov    DWORD PTR [esp+0x7c],0x0
 273:	00 
 274:	c7 84 24 80 00 00 00 	mov    DWORD PTR [esp+0x80],0x0
 27b:	00 00 00 00 
 27f:	c7 84 24 84 00 00 00 	mov    DWORD PTR [esp+0x84],0x0
 286:	00 00 00 00 
 28a:	c7 84 24 88 00 00 00 	mov    DWORD PTR [esp+0x88],0x0
 291:	00 00 00 00 
 295:	c7 84 24 8c 00 00 00 	mov    DWORD PTR [esp+0x8c],0x0
 29c:	00 00 00 00 
 2a0:	c7 84 24 90 00 00 00 	mov    DWORD PTR [esp+0x90],0x0
 2a7:	00 00 00 00 
 2ab:	c7 84 24 94 00 00 00 	mov    DWORD PTR [esp+0x94],0x0
 2b2:	00 00 00 00 
 2b6:	c7 84 24 98 00 00 00 	mov    DWORD PTR [esp+0x98],0x0
 2bd:	00 00 00 00 
 2c1:	c7 84 24 9c 00 00 00 	mov    DWORD PTR [esp+0x9c],0x0
 2c8:	00 00 00 00 
 2cc:	83 c4 18             	add    esp,0x18
 2cf:	68 00 00 00 00       	push   0x0
 2d4:	8d 5c 24 5c          	lea    ebx,[esp+0x5c]
 2d8:	53                   	push   ebx
 2d9:	e8 fc ff ff ff       	call   2da <settings_draw+0x2aa>
 2de:	8d 87 7a 01 00 00    	lea    eax,[edi+0x17a]
 2e4:	68 f4 d6 cd 00       	push   0xcdd6f4
 2e9:	53                   	push   ebx
 2ea:	50                   	push   eax
 2eb:	56                   	push   esi
 2ec:	e8 fc ff ff ff       	call   2ed <settings_draw+0x2bd>
 2f1:	83 c4 20             	add    esp,0x20
 2f4:	8d 87 8c 01 00 00    	lea    eax,[edi+0x18c]
 2fa:	81 c7 9e 01 00 00    	add    edi,0x19e
 300:	68 f4 d6 cd 00       	push   0xcdd6f4
 305:	68 8e 00 00 00       	push   0x8e
 30a:	50                   	push   eax
 30b:	89 74 24 14          	mov    DWORD PTR [esp+0x14],esi
 30f:	56                   	push   esi
 310:	e8 fc ff ff ff       	call   311 <settings_draw+0x2e1>
 315:	c7 44 24 40 55 70 74 	mov    DWORD PTR [esp+0x40],0x69747055
 31c:	69 
 31d:	c7 44 24 44 6d 65 3a 	mov    DWORD PTR [esp+0x44],0x203a656d
 324:	20 
 325:	c7 44 24 48 00 00 00 	mov    DWORD PTR [esp+0x48],0x0
 32c:	00 
 32d:	c7 44 24 4c 00 00 00 	mov    DWORD PTR [esp+0x4c],0x0
 334:	00 
 335:	c7 44 24 50 00 00 00 	mov    DWORD PTR [esp+0x50],0x0
 33c:	00 
 33d:	c7 44 24 54 00 00 00 	mov    DWORD PTR [esp+0x54],0x0
 344:	00 
 345:	c7 44 24 58 00 00 00 	mov    DWORD PTR [esp+0x58],0x0
 34c:	00 
 34d:	c7 44 24 5c 00 00 00 	mov    DWORD PTR [esp+0x5c],0x0
 354:	00 
 355:	e8 fc ff ff ff       	call   356 <settings_draw+0x326>
 35a:	ba 1f 85 eb 51       	mov    edx,0x51eb851f
 35f:	83 c4 0c             	add    esp,0xc
 362:	f7 e2                	mul    edx
 364:	b8 89 88 88 88       	mov    eax,0x88888889
 369:	6a 0a                	push   0xa
 36b:	c1 ea 05             	shr    edx,0x5
 36e:	8d 74 24 30          	lea    esi,[esp+0x30]
 372:	89 d5                	mov    ebp,edx
 374:	f7 e2                	mul    edx
 376:	56                   	push   esi
 377:	c1 ea 05             	shr    edx,0x5
 37a:	52                   	push   edx
 37b:	89 54 24 1c          	mov    DWORD PTR [esp+0x1c],edx
 37f:	e8 fc ff ff ff       	call   380 <settings_draw+0x350>
 384:	58                   	pop    eax
 385:	5a                   	pop    edx
 386:	56                   	push   esi
 387:	8d 5c 24 3c          	lea    ebx,[esp+0x3c]
 38b:	53                   	push   ebx
 38c:	e8 fc ff ff ff       	call   38d <settings_draw+0x35d>
 391:	59                   	pop    ecx
 392:	58                   	pop    eax
 393:	68 a3 00 00 00       	push   0xa3
 398:	53                   	push   ebx
 399:	e8 fc ff ff ff       	call   39a <settings_draw+0x36a>
 39e:	83 c4 0c             	add    esp,0xc
 3a1:	6a 0a                	push   0xa
 3a3:	56                   	push   esi
 3a4:	6b 54 24 18 3c       	imul   edx,DWORD PTR [esp+0x18],0x3c
 3a9:	29 d5                	sub    ebp,edx
 3ab:	55                   	push   ebp
 3ac:	e8 fc ff ff ff       	call   3ad <settings_draw+0x37d>
 3b1:	58                   	pop    eax
 3b2:	5a                   	pop    edx
 3b3:	56                   	push   esi
 3b4:	53                   	push   ebx
 3b5:	e8 fc ff ff ff       	call   3b6 <settings_draw+0x386>
 3ba:	59                   	pop    ecx
 3bb:	5e                   	pop    esi
 3bc:	68 a6 00 00 00       	push   0xa6
 3c1:	53                   	push   ebx
 3c2:	e8 fc ff ff ff       	call   3c3 <settings_draw+0x393>
 3c7:	68 f4 d6 cd 00       	push   0xcdd6f4
 3cc:	53                   	push   ebx
 3cd:	57                   	push   edi
 3ce:	ff 74 24 24          	push   DWORD PTR [esp+0x24]
 3d2:	e8 fc ff ff ff       	call   3d3 <settings_draw+0x3a3>
 3d7:	83 c4 20             	add    esp,0x20
 3da:	81 c4 8c 00 00 00    	add    esp,0x8c
 3e0:	5b                   	pop    ebx
 3e1:	5e                   	pop    esi
 3e2:	5f                   	pop    edi
 3e3:	5d                   	pop    ebp
 3e4:	c3                   	ret
 3e5:	8d 76 00             	lea    esi,[esi+0x0]
 3e8:	2e 8d b4 26 00 00 00 	lea    esi,cs:[esi+eiz*1+0x0]
 3ef:	00 

000003f0 <settings_on_mouse>:
 3f0:	55                   	push   ebp
 3f1:	57                   	push   edi
 3f2:	56                   	push   esi
 3f3:	53                   	push   ebx
 3f4:	8b 44 24 14          	mov    eax,DWORD PTR [esp+0x14]
 3f8:	8b 5c 24 18          	mov    ebx,DWORD PTR [esp+0x18]
 3fc:	8b 78 68             	mov    edi,DWORD PTR [eax+0x68]
 3ff:	85 ff                	test   edi,edi
 401:	74 75                	je     478 <settings_on_mouse+0x88>
 403:	80 7c 24 20 01       	cmp    BYTE PTR [esp+0x20],0x1
 408:	75 6e                	jne    478 <settings_on_mouse+0x88>
 40a:	31 c9                	xor    ecx,ecx
 40c:	be ab aa aa aa       	mov    esi,0xaaaaaaab
 411:	8d b4 26 00 00 00 00 	lea    esi,[esi+eiz*1+0x0]
 418:	2e 8d b4 26 00 00 00 	lea    esi,cs:[esi+eiz*1+0x0]
 41f:	00 
 420:	89 c8                	mov    eax,ecx
 422:	89 cd                	mov    ebp,ecx
 424:	f7 e6                	mul    esi
 426:	89 d0                	mov    eax,edx
 428:	83 e2 fe             	and    edx,0xfffffffe
 42b:	d1 e8                	shr    eax,1
 42d:	01 c2                	add    edx,eax
 42f:	29 d5                	sub    ebp,edx
 431:	69 d5 82 00 00 00    	imul   edx,ebp,0x82
 437:	8d 6a 18             	lea    ebp,[edx+0x18]
 43a:	39 dd                	cmp    ebp,ebx
 43c:	7f 32                	jg     470 <settings_on_mouse+0x80>
 43e:	81 c2 93 00 00 00    	add    edx,0x93
 444:	39 da                	cmp    edx,ebx
 446:	7c 28                	jl     470 <settings_on_mouse+0x80>
 448:	8d 04 c0             	lea    eax,[eax+eax*8]
 44b:	c1 e0 02             	shl    eax,0x2
 44e:	8d 90 b4 00 00 00    	lea    edx,[eax+0xb4]
 454:	3b 54 24 1c          	cmp    edx,DWORD PTR [esp+0x1c]
 458:	7f 16                	jg     470 <settings_on_mouse+0x80>
 45a:	05 d1 00 00 00       	add    eax,0xd1
 45f:	3b 44 24 1c          	cmp    eax,DWORD PTR [esp+0x1c]
 463:	7c 0b                	jl     470 <settings_on_mouse+0x80>
 465:	89 0f                	mov    DWORD PTR [edi],ecx
 467:	90                   	nop
 468:	2e 8d b4 26 00 00 00 	lea    esi,cs:[esi+eiz*1+0x0]
 46f:	00 
 470:	83 c1 01             	add    ecx,0x1
 473:	83 f9 07             	cmp    ecx,0x7
 476:	75 a8                	jne    420 <settings_on_mouse+0x30>
 478:	5b                   	pop    ebx
 479:	5e                   	pop    esi
 47a:	5f                   	pop    edi
 47b:	5d                   	pop    ebp
 47c:	c3                   	ret
